; dlltool -z fastbit.def array_t.o bitvector.o bitvector64.o bundle.o capi.o category.o colValues.o column.o fileManager.o ibin.o bord.o tafel.o mensa.o party.o part.o parti.o icegale.o icentre.o icmoins.o idbak.o idbak2.o idirekte.o ifade.o ikeywords.o imesa.o index.o irange.o irelic.o iroster.o isapid.o isbiad.o islice.o ixambit.o ixbylt.o ixfuge.o ixfuzz.o ixpack.o ixpale.o ixzona.o ixzone.o meshQuery.o predicate.tab.o predicate.yy.o qExpr.o query.o resource.o rids.o util.o
EXPORTS
;	ibis::TYPESTRING
	_ZN4ibis10TYPESTRINGE @ 1 DATA
;	ibis::colDoubles::sort(unsigned long, unsigned long, ibis::bundle*)
	_ZN4ibis10colDoubles4sortEmmPNS_6bundleE @ 2
;	ibis::colDoubles::sort(unsigned long, unsigned long, ibis::bundle*, __gnu_cxx::__normal_iterator<ibis::colValues**, std::vector<ibis::colValues*, std::allocator<ibis::colValues*> > >, __gnu_cxx::__normal_iterator<ibis::colValues**, std::vector<ibis::colValues*, std::allocator<ibis::colValues*> > >)
	_ZN4ibis10colDoubles4sortEmmPNS_6bundleEN9__gnu_cxx17__normal_iteratorIPPNS_9colValuesESt6vectorIS6_SaIS6_EEEESB_ @ 3
;	ibis::colDoubles::swap(unsigned long, unsigned long)
	_ZN4ibis10colDoubles4swapEmm @ 4
;	ibis::colDoubles::erase(unsigned long, unsigned long)
	_ZN4ibis10colDoubles5eraseEmm @ 5
;	ibis::colDoubles::reduce(array_t<unsigned long> const&)
	_ZN4ibis10colDoubles6reduceERK7array_tImE @ 6
;	ibis::colDoubles::reduce(array_t<unsigned long> const&, ibis::selected::FUNCTION)
	_ZN4ibis10colDoubles6reduceERK7array_tImENS_8selected8FUNCTIONE @ 7
;	ibis::colDoubles::reorder(array_t<unsigned long> const&)
	_ZN4ibis10colDoubles7reorderERK7array_tImE @ 8
;	ibis::colDoubles::truncate(unsigned long)
	_ZN4ibis10colDoubles8truncateEm @ 9
;	ibis::colDoubles::colDoubles(ibis::column const*, void*)
	_ZN4ibis10colDoublesC1EPKNS_6columnEPv @ 10
;	ibis::colDoubles::colDoubles(ibis::column const*, void*)
	_ZN4ibis10colDoublesC2EPKNS_6columnEPv @ 11
;	ibis::colDoubles::~colDoubles()
	_ZN4ibis10colDoublesD0Ev @ 12
;	ibis::colDoubles::~colDoubles()
	_ZN4ibis10colDoublesD1Ev @ 13
;	ibis::gParameters()
	_ZN4ibis11gParametersEv @ 14
;	ibis::part::buildIndex(int, char const*)
	_ZN4ibis4part10buildIndexEiPKc @ 15
;	ibis::part::countPages(ibis::bitvector const&, unsigned int)
	_ZN4ibis4part10countPagesERKNS_9bitvectorEj @ 16
;	ibis::part::deactivate(char const*)
	_ZN4ibis4part10deactivateEPKc @ 17
;	ibis::part::deactivate(ibis::bitvector const&)
	_ZN4ibis4part10deactivateERKNS_9bitvectorE @ 18
;	ibis::part::deactivate(std::vector<unsigned long, std::allocator<unsigned long> > const&)
	_ZN4ibis4part10deactivateERKSt6vectorImSaImEE @ 19
;	ibis::part::reactivate(char const*)
	_ZN4ibis4part10reactivateEPKc @ 20
;	ibis::part::reactivate(ibis::bitvector const&)
	_ZN4ibis4part10reactivateERKNS_9bitvectorE @ 21
;	ibis::part::reactivate(std::vector<unsigned long, std::allocator<unsigned long> > const&)
	_ZN4ibis4part10reactivateERKSt6vectorImSaImEE @ 22
;	ibis::part::setMetaTags(std::map<char const*, char*, ibis::lessi, std::allocator<std::pair<char const* const, char*> > > const&)
	_ZN4ibis4part11setMetaTagsERKSt3mapIPKcPcNS_5lessiESaISt4pairIKS3_S4_EEE @ 23
;	ibis::part::setMetaTags(std::vector<char const*, std::allocator<char const*> > const&)
	_ZN4ibis4part11setMetaTagsERKSt6vectorIPKcSaIS3_EE @ 24
;	long ibis::part::writeValues<char>(char const*, array_t<unsigned long> const&)
	_ZN4ibis4part11writeValuesIcEElPKcRK7array_tImE @ 25
;	long ibis::part::writeValues<double>(char const*, array_t<unsigned long> const&)
	_ZN4ibis4part11writeValuesIdEElPKcRK7array_tImE @ 26
;	long ibis::part::writeValues<float>(char const*, array_t<unsigned long> const&)
	_ZN4ibis4part11writeValuesIfEElPKcRK7array_tImE @ 27
;	long ibis::part::writeValues<unsigned char>(char const*, array_t<unsigned long> const&)
	_ZN4ibis4part11writeValuesIhEElPKcRK7array_tImE @ 28
;	long ibis::part::writeValues<long>(char const*, array_t<unsigned long> const&)
	_ZN4ibis4part11writeValuesIlEElPKcRK7array_tImE @ 29
;	long ibis::part::writeValues<unsigned long>(char const*, array_t<unsigned long> const&)
	_ZN4ibis4part11writeValuesImEElPKcRK7array_tImE @ 30
;	long ibis::part::writeValues<short>(char const*, array_t<unsigned long> const&)
	_ZN4ibis4part11writeValuesIsEElPKcRK7array_tImE @ 31
;	long ibis::part::writeValues<unsigned short>(char const*, array_t<unsigned long> const&)
	_ZN4ibis4part11writeValuesItEElPKcRK7array_tImE @ 32
;	long ibis::part::writeValues<long long>(char const*, array_t<unsigned long> const&)
	_ZN4ibis4part11writeValuesIxEElPKcRK7array_tImE @ 33
;	long ibis::part::writeValues<unsigned long long>(char const*, array_t<unsigned long> const&)
	_ZN4ibis4part11writeValuesIyEElPKcRK7array_tImE @ 34
;	ibis::part::readMetaTags(char const*)
	_ZN4ibis4part12readMetaTagsEPKc @ 35
;	ibis::part::computeMinMax()
	_ZN4ibis4part13computeMinMaxEv @ 36
;	ibis::part::purgeInactive()
	_ZN4ibis4part13purgeInactiveEv @ 37
;	ibis::part::readMeshShape(char const*)
	_ZN4ibis4part13readMeshShapeEPKc @ 38
;	long ibis::part::reorderValues<char>(char const*, array_t<unsigned long> const&, array_t<unsigned long>&, array_t<unsigned long>&)
	_ZN4ibis4part13reorderValuesIcEElPKcRK7array_tImERS5_S8_ @ 39
;	long ibis::part::reorderValues<double>(char const*, array_t<unsigned long> const&, array_t<unsigned long>&, array_t<unsigned long>&)
	_ZN4ibis4part13reorderValuesIdEElPKcRK7array_tImERS5_S8_ @ 40
;	long ibis::part::reorderValues<float>(char const*, array_t<unsigned long> const&, array_t<unsigned long>&, array_t<unsigned long>&)
	_ZN4ibis4part13reorderValuesIfEElPKcRK7array_tImERS5_S8_ @ 41
;	long ibis::part::reorderValues<unsigned char>(char const*, array_t<unsigned long> const&, array_t<unsigned long>&, array_t<unsigned long>&)
	_ZN4ibis4part13reorderValuesIhEElPKcRK7array_tImERS5_S8_ @ 42
;	long ibis::part::reorderValues<long>(char const*, array_t<unsigned long> const&, array_t<unsigned long>&, array_t<unsigned long>&)
	_ZN4ibis4part13reorderValuesIlEElPKcRK7array_tImERS5_S8_ @ 43
;	long ibis::part::reorderValues<unsigned long>(char const*, array_t<unsigned long> const&, array_t<unsigned long>&, array_t<unsigned long>&)
	_ZN4ibis4part13reorderValuesImEElPKcRK7array_tImERS5_S8_ @ 44
;	long ibis::part::reorderValues<short>(char const*, array_t<unsigned long> const&, array_t<unsigned long>&, array_t<unsigned long>&)
	_ZN4ibis4part13reorderValuesIsEElPKcRK7array_tImERS5_S8_ @ 45
;	long ibis::part::reorderValues<unsigned short>(char const*, array_t<unsigned long> const&, array_t<unsigned long>&, array_t<unsigned long>&)
	_ZN4ibis4part13reorderValuesItEElPKcRK7array_tImERS5_S8_ @ 46
;	long ibis::part::reorderValues<long long>(char const*, array_t<unsigned long> const&, array_t<unsigned long>&, array_t<unsigned long>&)
	_ZN4ibis4part13reorderValuesIxEElPKcRK7array_tImERS5_S8_ @ 47
;	long ibis::part::reorderValues<unsigned long long>(char const*, array_t<unsigned long> const&, array_t<unsigned long>&, array_t<unsigned long>&)
	_ZN4ibis4part13reorderValuesIyEElPKcRK7array_tImERS5_S8_ @ 48
;	ibis::part::appendToBackup(char const*)
	_ZN4ibis4part14appendToBackupEPKc @ 49
;	ibis::part::makeBackupCopy()
	_ZN4ibis4part14makeBackupCopyEv @ 50
;	ibis::part::digestMeshShape(char const*)
	_ZN4ibis4part15digestMeshShapeEPKc @ 51
;	ibis::part::verifyBackupDir()
	_ZN4ibis4part15verifyBackupDirEv @ 52
;	ibis::part::deriveBackupDirName()
	_ZN4ibis4part19deriveBackupDirNameEv @ 53
;	ibis::part::info::info(char const*, char const*, unsigned long long const&, std::map<char const*, ibis::column*, ibis::lessi, std::allocator<std::pair<char const* const, ibis::column*> > > const&)
	_ZN4ibis4part4infoC1EPKcS3_RKyRKSt3mapIS3_PNS_6columnENS_5lessiESaISt4pairIKS3_S8_EEE @ 54
;	ibis::part::info::info(ibis::part const&)
	_ZN4ibis4part4infoC1ERKS0_ @ 55
;	ibis::part::info::info(char const*, char const*, unsigned long long const&, std::map<char const*, ibis::column*, ibis::lessi, std::allocator<std::pair<char const* const, ibis::column*> > > const&)
	_ZN4ibis4part4infoC2EPKcS3_RKyRKSt3mapIS3_PNS_6columnENS_5lessiESaISt4pairIKS3_S8_EEE @ 56
;	ibis::part::info::info(ibis::part const&)
	_ZN4ibis4part4infoC2ERKS0_ @ 57
;	ibis::part::info::~info()
	_ZN4ibis4part4infoD1Ev @ 58
;	ibis::part::info::~info()
	_ZN4ibis4part4infoD2Ev @ 59
;	ibis::part::init(char const*)
	_ZN4ibis4part4initEPKc @ 60
;	ibis::part::append(char const*)
	_ZN4ibis4part6appendEPKc @ 61
;	ibis::part::commit(char const*)
	_ZN4ibis4part6commitEPKc @ 62
;	ibis::part::append1(char const*)
	_ZN4ibis4part7append1EPKc @ 63
;	ibis::part::append2(char const*)
	_ZN4ibis4part7append2EPKc @ 64
;	ibis::part::genName(std::map<char const*, char*, ibis::lessi, std::allocator<std::pair<char const* const, char*> > > const&, std::string&)
	_ZN4ibis4part7genNameERKSt3mapIPKcPcNS_5lessiESaISt4pairIKS3_S4_EEERSs @ 65
;	ibis::part::genName(std::vector<char const*, std::allocator<char const*> > const&, std::string&)
	_ZN4ibis4part7genNameERKSt6vectorIPKcSaIS3_EERSs @ 66
;	ibis::part::readTDC(unsigned int&, std::map<char const*, ibis::column*, ibis::lessi, std::allocator<std::pair<char const* const, ibis::column*> > >&, char const*)
	_ZN4ibis4part7readTDCERjRSt3mapIPKcPNS_6columnENS_5lessiESaISt4pairIKS4_S6_EEES4_ @ 67
;	ibis::part::reorder(std::vector<char const*, std::allocator<char const*> > const&)
	_ZN4ibis4part7reorderERKSt6vectorIPKcSaIS3_EE @ 68
;	ibis::part::reorder()
	_ZN4ibis4part7reorderEv @ 69
;	ibis::part::doBackup()
	_ZN4ibis4part8doBackupEv @ 70
;	ibis::part::rollback()
	_ZN4ibis4part8rollbackEv @ 71
;	ibis::part::indexSpec(char const*)
	_ZN4ibis4part9indexSpecEPKc @ 72
;	ibis::part::part(char const*)
	_ZN4ibis4partC1EPKc @ 73
;	ibis::part::part(char const*, char const*)
	_ZN4ibis4partC1EPKcS2_ @ 74
;	ibis::part::part(std::map<char const*, char*, ibis::lessi, std::allocator<std::pair<char const* const, char*> > > const&)
	_ZN4ibis4partC1ERKSt3mapIPKcPcNS_5lessiESaISt4pairIKS3_S4_EEE @ 75
;	ibis::part::part(std::vector<char const*, std::allocator<char const*> > const&)
	_ZN4ibis4partC1ERKSt6vectorIPKcSaIS3_EE @ 76
;	ibis::part::part(char const*)
	_ZN4ibis4partC2EPKc @ 77
;	ibis::part::part(char const*, char const*)
	_ZN4ibis4partC2EPKcS2_ @ 78
;	ibis::part::part(std::map<char const*, char*, ibis::lessi, std::allocator<std::pair<char const* const, char*> > > const&)
	_ZN4ibis4partC2ERKSt3mapIPKcPcNS_5lessiESaISt4pairIKS3_S4_EEE @ 79
;	ibis::part::part(std::vector<char const*, std::allocator<char const*> > const&)
	_ZN4ibis4partC2ERKSt6vectorIPKcSaIS3_EE @ 80
;	ibis::part::~part()
	_ZN4ibis4partD0Ev @ 81
;	ibis::part::~part()
	_ZN4ibis4partD1Ev @ 82
;	ibis::part::~part()
	_ZN4ibis4partD2Ev @ 83
;	ibis::util::getLogFile()
	_ZN4ibis4util10getLogFileEv @ 84
;	ibis::util::logMessage(char const*, char const*, ...)
	_ZN4ibis4util10logMessageEPKcS2_z @ 85
;	ibis::util::getFileSize(char const*)
	_ZN4ibis4util11getFileSizeEPKc @ 86
;	ibis::util::closeLogFile()
	_ZN4ibis4util12closeLogFileEv @ 87
;	ibis::util::tablesFromDir(std::map<char const*, ibis::part*, ibis::lessi, std::allocator<std::pair<char const* const, ibis::part*> > >&, char const*)
	_ZN4ibis4util13tablesFromDirERSt3mapIPKcPNS_4partENS_5lessiESaISt4pairIKS3_S5_EEES3_ @ 88
;	ibis::util::tablesFromDir(std::map<char const*, ibis::part*, ibis::lessi, std::allocator<std::pair<char const* const, ibis::part*> > >&, char const*, char const*)
	_ZN4ibis4util13tablesFromDirERSt3mapIPKcPNS_4partENS_5lessiESaISt4pairIKS3_S5_EEES3_S3_ @ 89
;	ibis::util::getLogFileName()
	_ZN4ibis4util14getLogFileNameEv @ 90
;	ibis::util::setLogFileName(char const*)
	_ZN4ibis4util14setLogFileNameEPKc @ 91
;	ibis::util::tablesFromResources(std::map<char const*, ibis::part*, ibis::lessi, std::allocator<std::pair<char const* const, ibis::part*> > >&, ibis::resource const&)
	_ZN4ibis4util19tablesFromResourcesERSt3mapIPKcPNS_4partENS_5lessiESaISt4pairIKS3_S5_EEERKNS_8resourceE @ 92
;	ibis::util::logger::logger(int)
	_ZN4ibis4util6loggerC1Ei @ 93
;	ibis::util::logger::logger(int)
	_ZN4ibis4util6loggerC2Ei @ 94
;	ibis::util::logger::~logger()
	_ZN4ibis4util6loggerD1Ev @ 95
;	ibis::util::logger::~logger()
	_ZN4ibis4util6loggerD2Ev @ 96
;	ibis::util::counter::counter(char const*)
	_ZN4ibis4util7counterC1EPKc @ 97
;	ibis::util::counter::counter(char const*)
	_ZN4ibis4util7counterC2EPKc @ 98
;	ibis::util::envLock
	_ZN4ibis4util7envLockE @ 99 DATA
;	ibis::util::checksum(char const*, unsigned long)
	_ZN4ibis4util8checksumEPKcm @ 100
;	ibis::util::userName()
	_ZN4ibis4util8userNameEv @ 101
;	ibis::util::getString(char const*)
	_ZN4ibis4util9getStringEPKc @ 102
;	ibis::util::getString(std::string&, char const*&, char const*)
	_ZN4ibis4util9getStringERSsRPKcS3_ @ 103
;	ibis::query::purgeFiles
	_ZN4ibis5query10purgeFilesE @ 104 DATA
;	ibis::query::writeQuery()
	_ZN4ibis5query10writeQueryEv @ 105
;	ibis::query::computeHits()
	_ZN4ibis5query11computeHitsEv @ 106
;	ibis::query::expandQuery()
	_ZN4ibis5query11expandQueryEv @ 107
;	ibis::query::processJoin()
	_ZN4ibis5query11processJoinEv @ 108
;	ibis::query::removeFiles()
	_ZN4ibis5query11removeFilesEv @ 109
;	ibis::query::reorderExpr()
	_ZN4ibis5query11reorderExprEv @ 110
;	ibis::query::isValidToken(char const*)
	_ZN4ibis5query12isValidTokenEPKc @ 111
;	ibis::query::contractQuery()
	_ZN4ibis5query13contractQueryEv @ 112
;	ibis::query::setWhereClause(char const*)
	_ZN4ibis5query14setWhereClauseEPKc @ 113
;	ibis::query::setSelectClause(char const*)
	_ZN4ibis5query15setSelectClauseEPKc @ 114
;	ibis::query::verifyPredicate(ibis::qExpr*&)
	_ZN4ibis5query15verifyPredicateERPNS_5qExprE @ 115
;	ibis::query::getQualifiedInts(char const*)
	_ZN4ibis5query16getQualifiedIntsEPKc @ 116
;	ibis::query::getQualifiedUInts(char const*)
	_ZN4ibis5query17getQualifiedUIntsEPKc @ 117
;	ibis::query::getQualifiedFloats(char const*)
	_ZN4ibis5query18getQualifiedFloatsEPKc @ 118
;	ibis::query::getQualifiedDoubles(char const*)
	_ZN4ibis5query19getQualifiedDoublesEPKc @ 119
;	ibis::query::removeComplexConditions()
	_ZN4ibis5query23removeComplexConditionsEv @ 120
;	ibis::query::clear()
	_ZN4ibis5query5clearEv @ 121
;	ibis::query::limit(char const*, int, unsigned long, bool)
	_ZN4ibis5query5limitEPKcimb @ 122
;	ibis::query::result::next()
	_ZN4ibis5query6result4nextEv @ 123
;	ibis::query::result::reset()
	_ZN4ibis5query6result5resetEv @ 124
;	ibis::query::result::result(ibis::query&)
	_ZN4ibis5query6resultC1ERS0_ @ 125
;	ibis::query::result::result(ibis::query&)
	_ZN4ibis5query6resultC2ERS0_ @ 126
;	ibis::query::result::~result()
	_ZN4ibis5query6resultD1Ev @ 127
;	ibis::query::result::~result()
	_ZN4ibis5query6resultD2Ev @ 128
;	ibis::query::setRIDs(array_t<ibis::rid_t> const&)
	_ZN4ibis5query7setRIDsERK7array_tINS_5rid_tEE @ 129
;	ibis::query::estimate()
	_ZN4ibis5query8estimateEv @ 130
;	ibis::query::evaluate(bool)
	_ZN4ibis5query8evaluateEb @ 131
;	ibis::query::newToken(char const*)
	_ZN4ibis5query8newTokenEPKc @ 132
;	ibis::query::readHits()
	_ZN4ibis5query8readHitsEv @ 133
;	ibis::query::setMyDir(char const*)
	_ZN4ibis5query8setMyDirEPKc @ 134
;	ibis::query::setTable(ibis::part const*)
	_ZN4ibis5query8setTableEPKNS_4partE @ 135
;	ibis::query::getBounds()
	_ZN4ibis5query9getBoundsEv @ 136
;	ibis::query::readQuery(std::map<char const*, ibis::part*, ibis::lessi, std::allocator<std::pair<char const* const, ibis::part*> > > const&)
	_ZN4ibis5query9readQueryERKSt3mapIPKcPNS_4partENS_5lessiESaISt4pairIKS3_S5_EEE @ 137
;	ibis::query::query(char const*, ibis::part const*, char const*)
	_ZN4ibis5queryC1EPKcPKNS_4partES2_ @ 138
;	ibis::query::query(char const*, std::map<char const*, ibis::part*, ibis::lessi, std::allocator<std::pair<char const* const, ibis::part*> > > const&)
	_ZN4ibis5queryC1EPKcRKSt3mapIS2_PNS_4partENS_5lessiESaISt4pairIKS2_S5_EEE @ 139
;	ibis::query::query(char const*, ibis::part const*, char const*)
	_ZN4ibis5queryC2EPKcPKNS_4partES2_ @ 140
;	ibis::query::query(char const*, std::map<char const*, ibis::part*, ibis::lessi, std::allocator<std::pair<char const* const, ibis::part*> > > const&)
	_ZN4ibis5queryC2EPKcRKSt3mapIS2_PNS_4partENS_5lessiESaISt4pairIKS2_S5_EEE @ 141
;	ibis::query::~query()
	_ZN4ibis5queryD0Ev @ 142
;	ibis::query::~query()
	_ZN4ibis5queryD1Ev @ 143
;	ibis::query::~query()
	_ZN4ibis5queryD2Ev @ 144
;	ibis::table::create(char const*)
	_ZN4ibis5table6createEPKc @ 145
;	ibis::table::create(char const*, char const*)
	_ZN4ibis5table6createEPKcS2_ @ 146
;	ibis::table::cursor::~cursor()
	_ZN4ibis5table6cursorD0Ev @ 147
;	ibis::table::cursor::~cursor()
	_ZN4ibis5table6cursorD1Ev @ 148
;	ibis::table::orderby(char const*)
	_ZN4ibis5table7orderbyEPKc @ 149
;	ibis::table::~table()
	_ZN4ibis5tableD0Ev @ 150
;	ibis::table::~table()
	_ZN4ibis5tableD1Ev @ 151
;	ibis::bundle::create(ibis::part const&, ibis::selected const&, std::vector<void*, std::allocator<void*> > const&)
	_ZN4ibis6bundle6createERKNS_4partERKNS_8selectedERKSt6vectorIPvSaIS8_EE @ 152
;	ibis::bundle::create(ibis::query const&)
	_ZN4ibis6bundle6createERKNS_5queryE @ 153
;	ibis::bundle::create(ibis::query const&, ibis::bitvector const&)
	_ZN4ibis6bundle6createERKNS_5queryERKNS_9bitvectorE @ 154
;	ibis::bundle::readRIDs(char const*, unsigned long)
	_ZN4ibis6bundle8readRIDsEPKcm @ 155
;	ibis::bundle::sortRIDs(unsigned long, unsigned long)
	_ZN4ibis6bundle8sortRIDsEmm @ 156
;	ibis::bundle::~bundle()
	_ZN4ibis6bundleD0Ev @ 157
;	ibis::bundle::~bundle()
	_ZN4ibis6bundleD1Ev @ 158
;	ibis::column::saveSelected(ibis::bitvector const&, char const*, char*, unsigned long)
	_ZN4ibis6column12saveSelectedERKNS_9bitvectorEPKcPcm @ 159
;	ibis::column::computeMinMax(char const*)
	_ZN4ibis6column13computeMinMaxEPKc @ 160
;	ibis::column::computeMinMax()
	_ZN4ibis6column13computeMinMaxEv @ 161
;	ibis::column::append(char const*, char const*, unsigned long, unsigned long, unsigned long, char*)
	_ZN4ibis6column6appendEPKcS2_mmmPc @ 162
;	ibis::column::writeData(char const*, unsigned long, unsigned long, ibis::bitvector&, void const*, void const*)
	_ZN4ibis6column9writeDataEPKcmmRNS_9bitvectorEPKvS6_ @ 163
;	ibis::column::column(ibis::part const*, ibis::TYPE_T, char const*, char const*, double, double)
	_ZN4ibis6columnC1EPKNS_4partENS_6TYPE_TEPKcS6_dd @ 164
;	ibis::column::column(ibis::part const*, _iobuf*)
	_ZN4ibis6columnC1EPKNS_4partEP6_iobuf @ 165
;	ibis::column::column(ibis::column const&)
	_ZN4ibis6columnC1ERKS0_ @ 166
;	ibis::column::column(ibis::part const*, ibis::TYPE_T, char const*, char const*, double, double)
	_ZN4ibis6columnC2EPKNS_4partENS_6TYPE_TEPKcS6_dd @ 167
;	ibis::column::column(ibis::part const*, _iobuf*)
	_ZN4ibis6columnC2EPKNS_4partEP6_iobuf @ 168
;	ibis::column::column(ibis::column const&)
	_ZN4ibis6columnC2ERKS0_ @ 169
;	ibis::column::~column()
	_ZN4ibis6columnD0Ev @ 170
;	ibis::column::~column()
	_ZN4ibis6columnD1Ev @ 171
;	ibis::column::~column()
	_ZN4ibis6columnD2Ev @ 172
;	ibis::tablex::create()
	_ZN4ibis6tablex6createEv @ 173
;	ibis::tablex::~tablex()
	_ZN4ibis6tablexD0Ev @ 174
;	ibis::tablex::~tablex()
	_ZN4ibis6tablexD1Ev @ 175
;	ibis::bundle0::reorder(char const*, int)
	_ZN4ibis7bundle07reorderEPKci @ 176
;	ibis::bundle0::truncate(char const*, int, unsigned long)
	_ZN4ibis7bundle08truncateEPKcim @ 177
;	ibis::bundle0::truncate(unsigned long)
	_ZN4ibis7bundle08truncateEm @ 178
;	ibis::bundle1::sort()
	_ZN4ibis7bundle14sortEv @ 179
;	ibis::bundle1::reorder(char const*, int)
	_ZN4ibis7bundle17reorderEPKci @ 180
;	ibis::bundle1::reverse()
	_ZN4ibis7bundle17reverseEv @ 181
;	ibis::bundle1::truncate(char const*, int, unsigned long)
	_ZN4ibis7bundle18truncateEPKcim @ 182
;	ibis::bundle1::truncate(unsigned long)
	_ZN4ibis7bundle18truncateEm @ 183
;	ibis::bundle1::bundle1(ibis::part const&, ibis::selected const&, std::vector<void*, std::allocator<void*> > const&)
	_ZN4ibis7bundle1C1ERKNS_4partERKNS_8selectedERKSt6vectorIPvSaIS8_EE @ 184
;	ibis::bundle1::bundle1(ibis::query const&)
	_ZN4ibis7bundle1C1ERKNS_5queryE @ 185
;	ibis::bundle1::bundle1(ibis::query const&, ibis::bitvector const&)
	_ZN4ibis7bundle1C1ERKNS_5queryERKNS_9bitvectorE @ 186
;	ibis::bundle1::bundle1(ibis::part const&, ibis::selected const&, std::vector<void*, std::allocator<void*> > const&)
	_ZN4ibis7bundle1C2ERKNS_4partERKNS_8selectedERKSt6vectorIPvSaIS8_EE @ 187
;	ibis::bundle1::bundle1(ibis::query const&)
	_ZN4ibis7bundle1C2ERKNS_5queryE @ 188
;	ibis::bundle1::bundle1(ibis::query const&, ibis::bitvector const&)
	_ZN4ibis7bundle1C2ERKNS_5queryERKNS_9bitvectorE @ 189
;	ibis::bundle1::~bundle1()
	_ZN4ibis7bundle1D0Ev @ 190
;	ibis::bundle1::~bundle1()
	_ZN4ibis7bundle1D1Ev @ 191
;	ibis::bundles::sort()
	_ZN4ibis7bundles4sortEv @ 192
;	ibis::bundles::clear()
	_ZN4ibis7bundles5clearEv @ 193
;	ibis::bundles::reorder(char const*, int)
	_ZN4ibis7bundles7reorderEPKci @ 194
;	ibis::bundles::reverse()
	_ZN4ibis7bundles7reverseEv @ 195
;	ibis::bundles::truncate(char const*, int, unsigned long)
	_ZN4ibis7bundles8truncateEPKcim @ 196
;	ibis::bundles::truncate(unsigned long)
	_ZN4ibis7bundles8truncateEm @ 197
;	ibis::bundles::bundles(ibis::part const&, ibis::selected const&, std::vector<void*, std::allocator<void*> > const&)
	_ZN4ibis7bundlesC1ERKNS_4partERKNS_8selectedERKSt6vectorIPvSaIS8_EE @ 198
;	ibis::bundles::bundles(ibis::query const&)
	_ZN4ibis7bundlesC1ERKNS_5queryE @ 199
;	ibis::bundles::bundles(ibis::query const&, ibis::bitvector const&)
	_ZN4ibis7bundlesC1ERKNS_5queryERKNS_9bitvectorE @ 200
;	ibis::bundles::bundles(ibis::part const&, ibis::selected const&, std::vector<void*, std::allocator<void*> > const&)
	_ZN4ibis7bundlesC2ERKNS_4partERKNS_8selectedERKSt6vectorIPvSaIS8_EE @ 201
;	ibis::bundles::bundles(ibis::query const&)
	_ZN4ibis7bundlesC2ERKNS_5queryE @ 202
;	ibis::bundles::bundles(ibis::query const&, ibis::bitvector const&)
	_ZN4ibis7bundlesC2ERKNS_5queryERKNS_9bitvectorE @ 203
;	ibis::bundles::~bundles()
	_ZN4ibis7bundlesD0Ev @ 204
;	ibis::bundles::~bundles()
	_ZN4ibis7bundlesD1Ev @ 205
;	ibis::colInts::sort(unsigned long, unsigned long, ibis::bundle*)
	_ZN4ibis7colInts4sortEmmPNS_6bundleE @ 206
;	ibis::colInts::sort(unsigned long, unsigned long, ibis::bundle*, __gnu_cxx::__normal_iterator<ibis::colValues**, std::vector<ibis::colValues*, std::allocator<ibis::colValues*> > >, __gnu_cxx::__normal_iterator<ibis::colValues**, std::vector<ibis::colValues*, std::allocator<ibis::colValues*> > >)
	_ZN4ibis7colInts4sortEmmPNS_6bundleEN9__gnu_cxx17__normal_iteratorIPPNS_9colValuesESt6vectorIS6_SaIS6_EEEESB_ @ 207
;	ibis::colInts::swap(unsigned long, unsigned long)
	_ZN4ibis7colInts4swapEmm @ 208
;	ibis::colInts::erase(unsigned long, unsigned long)
	_ZN4ibis7colInts5eraseEmm @ 209
;	ibis::colInts::reduce(array_t<unsigned long> const&)
	_ZN4ibis7colInts6reduceERK7array_tImE @ 210
;	ibis::colInts::reduce(array_t<unsigned long> const&, ibis::selected::FUNCTION)
	_ZN4ibis7colInts6reduceERK7array_tImENS_8selected8FUNCTIONE @ 211
;	ibis::colInts::reorder(array_t<unsigned long> const&)
	_ZN4ibis7colInts7reorderERK7array_tImE @ 212
;	ibis::colInts::truncate(unsigned long)
	_ZN4ibis7colInts8truncateEm @ 213
;	ibis::colInts::colInts(ibis::column const*, void*)
	_ZN4ibis7colIntsC1EPKNS_6columnEPv @ 214
;	ibis::colInts::colInts(ibis::column const*, void*)
	_ZN4ibis7colIntsC2EPKNS_6columnEPv @ 215
;	ibis::colInts::~colInts()
	_ZN4ibis7colIntsD0Ev @ 216
;	ibis::colInts::~colInts()
	_ZN4ibis7colIntsD1Ev @ 217
;	ibis::TYPECODE
	_ZN4ibis8TYPECODEE @ 218 DATA
;	ibis::colLongs::sort(unsigned long, unsigned long, ibis::bundle*)
	_ZN4ibis8colLongs4sortEmmPNS_6bundleE @ 219
;	ibis::colLongs::sort(unsigned long, unsigned long, ibis::bundle*, __gnu_cxx::__normal_iterator<ibis::colValues**, std::vector<ibis::colValues*, std::allocator<ibis::colValues*> > >, __gnu_cxx::__normal_iterator<ibis::colValues**, std::vector<ibis::colValues*, std::allocator<ibis::colValues*> > >)
	_ZN4ibis8colLongs4sortEmmPNS_6bundleEN9__gnu_cxx17__normal_iteratorIPPNS_9colValuesESt6vectorIS6_SaIS6_EEEESB_ @ 220
;	ibis::colLongs::swap(unsigned long, unsigned long)
	_ZN4ibis8colLongs4swapEmm @ 221
;	ibis::colLongs::erase(unsigned long, unsigned long)
	_ZN4ibis8colLongs5eraseEmm @ 222
;	ibis::colLongs::reduce(array_t<unsigned long> const&)
	_ZN4ibis8colLongs6reduceERK7array_tImE @ 223
;	ibis::colLongs::reduce(array_t<unsigned long> const&, ibis::selected::FUNCTION)
	_ZN4ibis8colLongs6reduceERK7array_tImENS_8selected8FUNCTIONE @ 224
;	ibis::colLongs::reorder(array_t<unsigned long> const&)
	_ZN4ibis8colLongs7reorderERK7array_tImE @ 225
;	ibis::colLongs::truncate(unsigned long)
	_ZN4ibis8colLongs8truncateEm @ 226
;	ibis::colLongs::colLongs(ibis::column const*, void*)
	_ZN4ibis8colLongsC1EPKNS_6columnEPv @ 227
;	ibis::colLongs::colLongs(ibis::column const*, void*)
	_ZN4ibis8colLongsC2EPKNS_6columnEPv @ 228
;	ibis::colLongs::~colLongs()
	_ZN4ibis8colLongsD0Ev @ 229
;	ibis::colLongs::~colLongs()
	_ZN4ibis8colLongsD1Ev @ 230
;	ibis::colUInts::sort(unsigned long, unsigned long, ibis::bundle*)
	_ZN4ibis8colUInts4sortEmmPNS_6bundleE @ 231
;	ibis::colUInts::sort(unsigned long, unsigned long, ibis::bundle*, __gnu_cxx::__normal_iterator<ibis::colValues**, std::vector<ibis::colValues*, std::allocator<ibis::colValues*> > >, __gnu_cxx::__normal_iterator<ibis::colValues**, std::vector<ibis::colValues*, std::allocator<ibis::colValues*> > >)
	_ZN4ibis8colUInts4sortEmmPNS_6bundleEN9__gnu_cxx17__normal_iteratorIPPNS_9colValuesESt6vectorIS6_SaIS6_EEEESB_ @ 232
;	ibis::colUInts::swap(unsigned long, unsigned long)
	_ZN4ibis8colUInts4swapEmm @ 233
;	ibis::colUInts::erase(unsigned long, unsigned long)
	_ZN4ibis8colUInts5eraseEmm @ 234
;	ibis::colUInts::reduce(array_t<unsigned long> const&)
	_ZN4ibis8colUInts6reduceERK7array_tImE @ 235
;	ibis::colUInts::reduce(array_t<unsigned long> const&, ibis::selected::FUNCTION)
	_ZN4ibis8colUInts6reduceERK7array_tImENS_8selected8FUNCTIONE @ 236
;	ibis::colUInts::reorder(array_t<unsigned long> const&)
	_ZN4ibis8colUInts7reorderERK7array_tImE @ 237
;	ibis::colUInts::truncate(unsigned long)
	_ZN4ibis8colUInts8truncateEm @ 238
;	ibis::colUInts::colUInts(ibis::column const*, void*)
	_ZN4ibis8colUIntsC1EPKNS_6columnEPv @ 239
;	ibis::colUInts::colUInts(ibis::column const*, void*)
	_ZN4ibis8colUIntsC2EPKNS_6columnEPv @ 240
;	ibis::colUInts::~colUInts()
	_ZN4ibis8colUIntsD0Ev @ 241
;	ibis::colUInts::~colUInts()
	_ZN4ibis8colUIntsD1Ev @ 242
;	ibis::gVerbose
	_ZN4ibis8gVerboseE @ 243 DATA
;	ibis::nameList::delimiters
	_ZN4ibis8nameList10delimitersE @ 244 DATA
;	ibis::nameList::clear()
	_ZN4ibis8nameList5clearEv @ 245
;	ibis::nameList::select(char const*)
	_ZN4ibis8nameList6selectEPKc @ 246
;	ibis::resource::delimiters
	_ZN4ibis8resource10delimitersE @ 247 DATA
;	ibis::resource::parseNameValuePairs(char const*, std::map<char const*, char*, ibis::lessi, std::allocator<std::pair<char const* const, char*> > >&)
	_ZN4ibis8resource19parseNameValuePairsEPKcRSt3mapIS2_PcNS_5lessiESaISt4pairIKS2_S4_EEE @ 248
;	ibis::resource::add(char const*, char const*)
	_ZN4ibis8resource3addEPKcS2_ @ 249
;	ibis::resource::read(char const*)
	_ZN4ibis8resource4readEPKc @ 250
;	ibis::resource::clear(std::map<char const*, char*, ibis::lessi, std::allocator<std::pair<char const* const, char*> > >&)
	_ZN4ibis8resource5clearERSt3mapIPKcPcNS_5lessiESaISt4pairIKS3_S4_EEE @ 251
;	ibis::resource::clear()
	_ZN4ibis8resource5clearEv @ 252
;	ibis::resource::operator=(ibis::resource const&)
	_ZN4ibis8resourceaSERKS0_ @ 253
;	ibis::bitvector::adjustSize(unsigned long, unsigned long)
	_ZN4ibis9bitvector10adjustSizeEmm @ 254
;	ibis::bitvector::appendWord(unsigned long)
	_ZN4ibis9bitvector10appendWordEm @ 255
;	ibis::bitvector::copy_runsn(ibis::bitvector::run&, unsigned long&)
	_ZN4ibis9bitvector10copy_runsnERNS0_3runERm @ 256
;	ibis::bitvector::decompress()
	_ZN4ibis9bitvector10decompressEv @ 257
;	ibis::bitvector::append_active()
	_ZN4ibis9bitvector13append_activeEv @ 258
;	ibis::bitvector::clusteringFactor(unsigned long, unsigned long, unsigned long)
	_ZN4ibis9bitvector16clusteringFactorEmmm @ 259
;	ibis::bitvector::set(int, unsigned long)
	_ZN4ibis9bitvector3setEim @ 260
;	ibis::bitvector::flip()
	_ZN4ibis9bitvector4flipEv @ 261
;	ibis::bitvector::read(char const*)
	_ZN4ibis9bitvector4readEPKc @ 262
;	ibis::bitvector::clear()
	_ZN4ibis9bitvector5clearEv @ 263
;	ibis::bitvector::erase(unsigned long, unsigned long)
	_ZN4ibis9bitvector5eraseEmm @ 264
;	ibis::bitvector::or_c0(ibis::bitvector const&)
	_ZN4ibis9bitvector5or_c0ERKS0_ @ 265
;	ibis::bitvector::or_d1(ibis::bitvector const&)
	_ZN4ibis9bitvector5or_d1ERKS0_ @ 266
;	ibis::bitvector::MAXCNT
	_ZN4ibis9bitvector6MAXCNTE @ 267 DATA
;	ibis::bitvector::and_c0(ibis::bitvector const&)
	_ZN4ibis9bitvector6and_c0ERKS0_ @ 268
;	ibis::bitvector::and_d1(ibis::bitvector const&)
	_ZN4ibis9bitvector6and_d1ERKS0_ @ 269
;	ibis::bitvector::setBit(unsigned long, int)
	_ZN4ibis9bitvector6setBitEmi @ 270
;	ibis::bitvector::xor_c0(ibis::bitvector const&)
	_ZN4ibis9bitvector6xor_c0ERKS0_ @ 271
;	ibis::bitvector::xor_d1(ibis::bitvector const&)
	_ZN4ibis9bitvector6xor_d1ERKS0_ @ 272
;	ibis::bitvector::ALLONES
	_ZN4ibis9bitvector7ALLONESE @ 273 DATA
;	ibis::bitvector::FILLBIT
	_ZN4ibis9bitvector7FILLBITE @ 274 DATA
;	ibis::bitvector::HEADER0
	_ZN4ibis9bitvector7HEADER0E @ 275 DATA
;	ibis::bitvector::HEADER1
	_ZN4ibis9bitvector7HEADER1E @ 276 DATA
;	ibis::bitvector::MAXBITS
	_ZN4ibis9bitvector7MAXBITSE @ 277 DATA
;	ibis::bitvector::reserve(unsigned int, unsigned int, double)
	_ZN4ibis9bitvector7reserveEjjd @ 278
;	ibis::bitvector::compress()
	_ZN4ibis9bitvector8compressEv @ 279
;	ibis::bitvector::minus_c0(ibis::bitvector const&)
	_ZN4ibis9bitvector8minus_c0ERKS0_ @ 280
;	ibis::bitvector::minus_d1(ibis::bitvector const&)
	_ZN4ibis9bitvector8minus_d1ERKS0_ @ 281
;	ibis::bitvector::SECONDBIT
	_ZN4ibis9bitvector9SECONDBITE @ 282 DATA
;	ibis::bitvector::copy_runs(ibis::bitvector::run&, unsigned long&)
	_ZN4ibis9bitvector9copy_runsERNS0_3runERm @ 283
;	ibis::bitvector::bitvector(char const*)
	_ZN4ibis9bitvectorC1EPKc @ 284
;	ibis::bitvector::bitvector(ibis::bitvector const&)
	_ZN4ibis9bitvectorC1ERKS0_ @ 285
;	ibis::bitvector::bitvector()
	_ZN4ibis9bitvectorC1Ev @ 286
;	ibis::bitvector::bitvector(char const*)
	_ZN4ibis9bitvectorC2EPKc @ 287
;	ibis::bitvector::operator&=(ibis::bitvector const&)
	_ZN4ibis9bitvectoraNERKS0_ @ 288
;	ibis::bitvector::operator^=(ibis::bitvector const&)
	_ZN4ibis9bitvectoreOERKS0_ @ 289
;	ibis::bitvector::operator-=(ibis::bitvector const&)
	_ZN4ibis9bitvectormIERKS0_ @ 290
;	ibis::bitvector::operator|=(ibis::bitvector const&)
	_ZN4ibis9bitvectoroRERKS0_ @ 291
;	ibis::bitvector::operator+=(ibis::bitvector const&)
	_ZN4ibis9bitvectorpLERKS0_ @ 292
;	ibis::colFloats::sort(unsigned long, unsigned long, ibis::bundle*)
	_ZN4ibis9colFloats4sortEmmPNS_6bundleE @ 293
;	ibis::colFloats::sort(unsigned long, unsigned long, ibis::bundle*, __gnu_cxx::__normal_iterator<ibis::colValues**, std::vector<ibis::colValues*, std::allocator<ibis::colValues*> > >, __gnu_cxx::__normal_iterator<ibis::colValues**, std::vector<ibis::colValues*, std::allocator<ibis::colValues*> > >)
	_ZN4ibis9colFloats4sortEmmPNS_6bundleEN9__gnu_cxx17__normal_iteratorIPPNS_9colValuesESt6vectorIS6_SaIS6_EEEESB_ @ 294
;	ibis::colFloats::swap(unsigned long, unsigned long)
	_ZN4ibis9colFloats4swapEmm @ 295
;	ibis::colFloats::erase(unsigned long, unsigned long)
	_ZN4ibis9colFloats5eraseEmm @ 296
;	ibis::colFloats::reduce(array_t<unsigned long> const&)
	_ZN4ibis9colFloats6reduceERK7array_tImE @ 297
;	ibis::colFloats::reduce(array_t<unsigned long> const&, ibis::selected::FUNCTION)
	_ZN4ibis9colFloats6reduceERK7array_tImENS_8selected8FUNCTIONE @ 298
;	ibis::colFloats::reorder(array_t<unsigned long> const&)
	_ZN4ibis9colFloats7reorderERK7array_tImE @ 299
;	ibis::colFloats::truncate(unsigned long)
	_ZN4ibis9colFloats8truncateEm @ 300
;	ibis::colFloats::colFloats(ibis::column const*, void*)
	_ZN4ibis9colFloatsC1EPKNS_6columnEPv @ 301
;	ibis::colFloats::colFloats(ibis::column const*, void*)
	_ZN4ibis9colFloatsC2EPKNS_6columnEPv @ 302
;	ibis::colFloats::~colFloats()
	_ZN4ibis9colFloatsD0Ev @ 303
;	ibis::colFloats::~colFloats()
	_ZN4ibis9colFloatsD1Ev @ 304
;	ibis::colULongs::sort(unsigned long, unsigned long, ibis::bundle*)
	_ZN4ibis9colULongs4sortEmmPNS_6bundleE @ 305
;	ibis::colULongs::sort(unsigned long, unsigned long, ibis::bundle*, __gnu_cxx::__normal_iterator<ibis::colValues**, std::vector<ibis::colValues*, std::allocator<ibis::colValues*> > >, __gnu_cxx::__normal_iterator<ibis::colValues**, std::vector<ibis::colValues*, std::allocator<ibis::colValues*> > >)
	_ZN4ibis9colULongs4sortEmmPNS_6bundleEN9__gnu_cxx17__normal_iteratorIPPNS_9colValuesESt6vectorIS6_SaIS6_EEEESB_ @ 306
;	ibis::colULongs::swap(unsigned long, unsigned long)
	_ZN4ibis9colULongs4swapEmm @ 307
;	ibis::colULongs::erase(unsigned long, unsigned long)
	_ZN4ibis9colULongs5eraseEmm @ 308
;	ibis::colULongs::reduce(array_t<unsigned long> const&)
	_ZN4ibis9colULongs6reduceERK7array_tImE @ 309
;	ibis::colULongs::reduce(array_t<unsigned long> const&, ibis::selected::FUNCTION)
	_ZN4ibis9colULongs6reduceERK7array_tImENS_8selected8FUNCTIONE @ 310
;	ibis::colULongs::reorder(array_t<unsigned long> const&)
	_ZN4ibis9colULongs7reorderERK7array_tImE @ 311
;	ibis::colULongs::truncate(unsigned long)
	_ZN4ibis9colULongs8truncateEm @ 312
;	ibis::colULongs::colULongs(ibis::column const*, void*)
	_ZN4ibis9colULongsC1EPKNS_6columnEPv @ 313
;	ibis::colULongs::colULongs(ibis::column const*, void*)
	_ZN4ibis9colULongsC2EPKNS_6columnEPv @ 314
;	ibis::colULongs::~colULongs()
	_ZN4ibis9colULongsD0Ev @ 315
;	ibis::colULongs::~colULongs()
	_ZN4ibis9colULongsD1Ev @ 316
;	ibis::colValues::create(ibis::column const*, ibis::fileManager::storage*, unsigned long, unsigned long)
	_ZN4ibis9colValues6createEPKNS_6columnEPNS_11fileManager7storageEmm @ 317
;	ibis::colValues::create(ibis::column const*, void*)
	_ZN4ibis9colValues6createEPKNS_6columnEPv @ 318
;	ibis::colValues::create(ibis::column const*, ibis::bitvector const&)
	_ZN4ibis9colValues6createEPKNS_6columnERKNS_9bitvectorE @ 319
;	ibis::colValues::~colValues()
	_ZN4ibis9colValuesD0Ev @ 320
;	ibis::colValues::~colValues()
	_ZN4ibis9colValuesD1Ev @ 321
;	ibis::meshQuery::bitvectorToCoordinates(ibis::bitvector const&, std::vector<unsigned long, std::allocator<unsigned long> > const&, std::vector<unsigned long, std::allocator<unsigned long> >&)
	_ZN4ibis9meshQuery22bitvectorToCoordinatesERKNS_9bitvectorERKSt6vectorImSaImEERS6_ @ 322
;	ibis::meshQuery::meshQuery(char const*, ibis::part const*, char const*)
	_ZN4ibis9meshQueryC1EPKcPKNS_4partES2_ @ 323
;	ibis::meshQuery::meshQuery(char const*, ibis::part const*, char const*)
	_ZN4ibis9meshQueryC2EPKcPKNS_4partES2_ @ 324
;	ibis::meshQuery::~meshQuery()
	_ZN4ibis9meshQueryD0Ev @ 325
;	ibis::meshQuery::~meshQuery()
	_ZN4ibis9meshQueryD1Ev @ 326
;	ibis::meshQuery::~meshQuery()
	_ZN4ibis9meshQueryD2Ev @ 327
;	ibis::colDoubles::elementSize() const
	_ZNK4ibis10colDoubles11elementSizeEv @ 328
;	ibis::colDoubles::size() const
	_ZNK4ibis10colDoubles4sizeEv @ 329
;	ibis::colDoubles::sort(unsigned long, unsigned long, array_t<unsigned long>&) const
	_ZNK4ibis10colDoubles4sortEmmR7array_tImE @ 330
;	ibis::colDoubles::topk(unsigned long, array_t<unsigned long>&) const
	_ZNK4ibis10colDoubles4topkEmR7array_tImE @ 331
;	ibis::colDoubles::empty() const
	_ZNK4ibis10colDoubles5emptyEv @ 332
;	ibis::colDoubles::write(_iobuf*) const
	_ZNK4ibis10colDoubles5writeEP6_iobuf @ 333
;	ibis::colDoubles::write(std::ostream&, unsigned long) const
	_ZNK4ibis10colDoubles5writeERSom @ 334
;	ibis::colDoubles::getInt(unsigned long) const
	_ZNK4ibis10colDoubles6getIntEm @ 335
;	ibis::colDoubles::getMax() const
	_ZNK4ibis10colDoubles6getMaxEv @ 336
;	ibis::colDoubles::getMin() const
	_ZNK4ibis10colDoubles6getMinEv @ 337
;	ibis::colDoubles::getSum() const
	_ZNK4ibis10colDoubles6getSumEv @ 338
;	ibis::colDoubles::bottomk(unsigned long, array_t<unsigned long>&) const
	_ZNK4ibis10colDoubles7bottomkEmR7array_tImE @ 339
;	ibis::colDoubles::getLong(unsigned long) const
	_ZNK4ibis10colDoubles7getLongEm @ 340
;	ibis::colDoubles::getType() const
	_ZNK4ibis10colDoubles7getTypeEv @ 341
;	ibis::colDoubles::getUInt(unsigned long) const
	_ZNK4ibis10colDoubles7getUIntEm @ 342
;	ibis::colDoubles::segment(array_t<unsigned long> const*) const
	_ZNK4ibis10colDoubles7segmentEPK7array_tImE @ 343
;	ibis::colDoubles::getArray() const
	_ZNK4ibis10colDoubles8getArrayEv @ 344
;	ibis::colDoubles::getFloat(unsigned long) const
	_ZNK4ibis10colDoubles8getFloatEm @ 345
;	ibis::colDoubles::getULong(unsigned long) const
	_ZNK4ibis10colDoubles8getULongEm @ 346
;	ibis::colDoubles::getDouble(unsigned long) const
	_ZNK4ibis10colDoubles9getDoubleEm @ 347
;	ibis::colDoubles::operator->() const
	_ZNK4ibis10colDoublesptEv @ 348
;	ibis::part::accessHint(ibis::bitvector const&, unsigned int) const
	_ZNK4ibis4part10accessHintERKNS_9bitvectorEj @ 349
;	long ibis::part::doCompare0<char, std::binder1st<std::less_equal<char> > >(array_t<char> const&, std::binder1st<std::less_equal<char> >, ibis::bitvector const&, ibis::bitvector&) const
	_ZNK4ibis4part10doCompare0IcSt9binder1stISt10less_equalIcEEEElRK7array_tIT_ET0_RKNS_9bitvectorERSC_ @ 350
;	long ibis::part::doCompare0<char, std::binder1st<std::less_equal<char> >, std::binder2nd<std::less_equal<char> > >(array_t<char> const&, std::binder1st<std::less_equal<char> >, std::binder2nd<std::less_equal<char> >, ibis::bitvector const&, ibis::bitvector&) const
	_ZNK4ibis4part10doCompare0IcSt9binder1stISt10less_equalIcEESt9binder2ndIS4_EEElRK7array_tIT_ET0_T1_RKNS_9bitvectorERSF_ @ 351
;	long ibis::part::doCompare0<char, std::binder1st<std::less_equal<char> >, std::binder2nd<std::greater_equal<char> > >(array_t<char> const&, std::binder1st<std::less_equal<char> >, std::binder2nd<std::greater_equal<char> >, ibis::bitvector const&, ibis::bitvector&) const
	_ZNK4ibis4part10doCompare0IcSt9binder1stISt10less_equalIcEESt9binder2ndISt13greater_equalIcEEEElRK7array_tIT_ET0_T1_RKNS_9bitvectorERSH_ @ 352
;	long ibis::part::doCompare0<char, std::binder1st<std::less_equal<char> >, std::binder2nd<std::less<char> > >(array_t<char> const&, std::binder1st<std::less_equal<char> >, std::binder2nd<std::less<char> >, ibis::bitvector const&, ibis::bitvector&) const
	_ZNK4ibis4part10doCompare0IcSt9binder1stISt10less_equalIcEESt9binder2ndISt4lessIcEEEElRK7array_tIT_ET0_T1_RKNS_9bitvectorERSH_ @ 353
;	long ibis::part::doCompare0<char, std::binder1st<std::less_equal<char> >, std::binder2nd<std::greater<char> > >(array_t<char> const&, std::binder1st<std::less_equal<char> >, std::binder2nd<std::greater<char> >, ibis::bitvector const&, ibis::bitvector&) const
	_ZNK4ibis4part10doCompare0IcSt9binder1stISt10less_equalIcEESt9binder2ndISt7greaterIcEEEElRK7array_tIT_ET0_T1_RKNS_9bitvectorERSH_ @ 354
;	long ibis::part::doCompare0<char, std::binder1st<std::less_equal<char> >, std::binder2nd<std::equal_to<char> > >(array_t<char> const&, std::binder1st<std::less_equal<char> >, std::binder2nd<std::equal_to<char> >, ibis::bitvector const&, ibis::bitvector&) const
	_ZNK4ibis4part10doCompare0IcSt9binder1stISt10less_equalIcEESt9binder2ndISt8equal_toIcEEEElRK7array_tIT_ET0_T1_RKNS_9bitvectorERSH_ @ 355
;	long ibis::part::doCompare0<char, std::binder1st<std::greater_equal<char> > >(array_t<char> const&, std::binder1st<std::greater_equal<char> >, ibis::bitvector const&, ibis::bitvector&) const
	_ZNK4ibis4part10doCompare0IcSt9binder1stISt13greater_equalIcEEEElRK7array_tIT_ET0_RKNS_9bitvectorERSC_ @ 356
;	long ibis::part::doCompare0<char, std::binder1st<std::greater_equal<char> >, std::binder2nd<std::greater_equal<char> > >(array_t<char> const&, std::binder1st<std::greater_equal<char> >, std::binder2nd<std::greater_equal<char> >, ibis::bitvector const&, ibis::bitvector&) const
	_ZNK4ibis4part10doCompare0IcSt9binder1stISt13greater_equalIcEESt9binder2ndIS4_EEElRK7array_tIT_ET0_T1_RKNS_9bitvectorERSF_ @ 357
;	long ibis::part::doCompare0<char, std::binder1st<std::greater_equal<char> >, std::binder2nd<std::less_equal<char> > >(array_t<char> const&, std::binder1st<std::greater_equal<char> >, std::binder2nd<std::less_equal<char> >, ibis::bitvector const&, ibis::bitvector&) const
	_ZNK4ibis4part10doCompare0IcSt9binder1stISt13greater_equalIcEESt9binder2ndISt10less_equalIcEEEElRK7array_tIT_ET0_T1_RKNS_9bitvectorERSH_ @ 358
;	long ibis::part::doCompare0<char, std::binder1st<std::greater_equal<char> >, std::binder2nd<std::less<char> > >(array_t<char> const&, std::binder1st<std::greater_equal<char> >, std::binder2nd<std::less<char> >, ibis::bitvector const&, ibis::bitvector&) const
	_ZNK4ibis4part10doCompare0IcSt9binder1stISt13greater_equalIcEESt9binder2ndISt4lessIcEEEElRK7array_tIT_ET0_T1_RKNS_9bitvectorERSH_ @ 359
;	long ibis::part::doCompare0<char, std::binder1st<std::greater_equal<char> >, std::binder2nd<std::greater<char> > >(array_t<char> const&, std::binder1st<std::greater_equal<char> >, std::binder2nd<std::greater<char> >, ibis::bitvector const&, ibis::bitvector&) const
	_ZNK4ibis4part10doCompare0IcSt9binder1stISt13greater_equalIcEESt9binder2ndISt7greaterIcEEEElRK7array_tIT_ET0_T1_RKNS_9bitvectorERSH_ @ 360
;	long ibis::part::doCompare0<char, std::binder1st<std::greater_equal<char> >, std::binder2nd<std::equal_to<char> > >(array_t<char> const&, std::binder1st<std::greater_equal<char> >, std::binder2nd<std::equal_to<char> >, ibis::bitvector const&, ibis::bitvector&) const
	_ZNK4ibis4part10doCompare0IcSt9binder1stISt13greater_equalIcEESt9binder2ndISt8equal_toIcEEEElRK7array_tIT_ET0_T1_RKNS_9bitvectorERSH_ @ 361
;	long ibis::part::doCompare0<char, std::binder1st<std::less<char> > >(array_t<char> const&, std::binder1st<std::less<char> >, ibis::bitvector const&, ibis::bitvector&) const
	_ZNK4ibis4part10doCompare0IcSt9binder1stISt4lessIcEEEElRK7array_tIT_ET0_RKNS_9bitvectorERSC_ @ 362
;	long ibis::part::doCompare0<char, std::binder1st<std::less<char> >, std::binder2nd<std::less<char> > >(array_t<char> const&, std::binder1st<std::less<char> >, std::binder2nd<std::less<char> >, ibis::bitvector const&, ibis::bitvector&) const
	_ZNK4ibis4part10doCompare0IcSt9binder1stISt4lessIcEESt9binder2ndIS4_EEElRK7array_tIT_ET0_T1_RKNS_9bitvectorERSF_ @ 363
;	long ibis::part::doCompare0<char, std::binder1st<std::less<char> >, std::binder2nd<std::less_equal<char> > >(array_t<char> const&, std::binder1st<std::less<char> >, std::binder2nd<std::less_equal<char> >, ibis::bitvector const&, ibis::bitvector&) const
	_ZNK4ibis4part10doCompare0IcSt9binder1stISt4lessIcEESt9binder2ndISt10less_equalIcEEEElRK7array_tIT_ET0_T1_RKNS_9bitvectorERSH_ @ 364
;	long ibis::part::doCompare0<char, std::binder1st<std::less<char> >, std::binder2nd<std::greater_equal<char> > >(array_t<char> const&, std::binder1st<std::less<char> >, std::binder2nd<std::greater_equal<char> >, ibis::bitvector const&, ibis::bitvector&) const
	_ZNK4ibis4part10doCompare0IcSt9binder1stISt4lessIcEESt9binder2ndISt13greater_equalIcEEEElRK7array_tIT_ET0_T1_RKNS_9bitvectorERSH_ @ 365
;	long ibis::part::doCompare0<char, std::binder1st<std::less<char> >, std::binder2nd<std::greater<char> > >(array_t<char> const&, std::binder1st<std::less<char> >, std::binder2nd<std::greater<char> >, ibis::bitvector const&, ibis::bitvector&) const
	_ZNK4ibis4part10doCompare0IcSt9binder1stISt4lessIcEESt9binder2ndISt7greaterIcEEEElRK7array_tIT_ET0_T1_RKNS_9bitvectorERSH_ @ 366
;	long ibis::part::doCompare0<char, std::binder1st<std::less<char> >, std::binder2nd<std::equal_to<char> > >(array_t<char> const&, std::binder1st<std::less<char> >, std::binder2nd<std::equal_to<char> >, ibis::bitvector const&, ibis::bitvector&) const
	_ZNK4ibis4part10doCompare0IcSt9binder1stISt4lessIcEESt9binder2ndISt8equal_toIcEEEElRK7array_tIT_ET0_T1_RKNS_9bitvectorERSH_ @ 367
;	long ibis::part::doCompare0<char, std::binder1st<std::greater<char> > >(array_t<char> const&, std::binder1st<std::greater<char> >, ibis::bitvector const&, ibis::bitvector&) const
	_ZNK4ibis4part10doCompare0IcSt9binder1stISt7greaterIcEEEElRK7array_tIT_ET0_RKNS_9bitvectorERSC_ @ 368
;	long ibis::part::doCompare0<char, std::binder1st<std::greater<char> >, std::binder2nd<std::greater<char> > >(array_t<char> const&, std::binder1st<std::greater<char> >, std::binder2nd<std::greater<char> >, ibis::bitvector const&, ibis::bitvector&) const
	_ZNK4ibis4part10doCompare0IcSt9binder1stISt7greaterIcEESt9binder2ndIS4_EEElRK7array_tIT_ET0_T1_RKNS_9bitvectorERSF_ @ 369
;	long ibis::part::doCompare0<char, std::binder1st<std::greater<char> >, std::binder2nd<std::less_equal<char> > >(array_t<char> const&, std::binder1st<std::greater<char> >, std::binder2nd<std::less_equal<char> >, ibis::bitvector const&, ibis::bitvector&) const
	_ZNK4ibis4part10doCompare0IcSt9binder1stISt7greaterIcEESt9binder2ndISt10less_equalIcEEEElRK7array_tIT_ET0_T1_RKNS_9bitvectorERSH_ @ 370
;	long ibis::part::doCompare0<char, std::binder1st<std::greater<char> >, std::binder2nd<std::greater_equal<char> > >(array_t<char> const&, std::binder1st<std::greater<char> >, std::binder2nd<std::greater_equal<char> >, ibis::bitvector const&, ibis::bitvector&) const
	_ZNK4ibis4part10doCompare0IcSt9binder1stISt7greaterIcEESt9binder2ndISt13greater_equalIcEEEElRK7array_tIT_ET0_T1_RKNS_9bitvectorERSH_ @ 371
;	long ibis::part::doCompare0<char, std::binder1st<std::greater<char> >, std::binder2nd<std::less<char> > >(array_t<char> const&, std::binder1st<std::greater<char> >, std::binder2nd<std::less<char> >, ibis::bitvector const&, ibis::bitvector&) const
	_ZNK4ibis4part10doCompare0IcSt9binder1stISt7greaterIcEESt9binder2ndISt4lessIcEEEElRK7array_tIT_ET0_T1_RKNS_9bitvectorERSH_ @ 372
;	long ibis::part::doCompare0<char, std::binder1st<std::greater<char> >, std::binder2nd<std::equal_to<char> > >(array_t<char> const&, std::binder1st<std::greater<char> >, std::binder2nd<std::equal_to<char> >, ibis::bitvector const&, ibis::bitvector&) const
	_ZNK4ibis4part10doCompare0IcSt9binder1stISt7greaterIcEESt9binder2ndISt8equal_toIcEEEElRK7array_tIT_ET0_T1_RKNS_9bitvectorERSH_ @ 373
;	long ibis::part::doCompare0<char, std::binder1st<std::equal_to<char> > >(array_t<char> const&, std::binder1st<std::equal_to<char> >, ibis::bitvector const&, ibis::bitvector&) const
	_ZNK4ibis4part10doCompare0IcSt9binder1stISt8equal_toIcEEEElRK7array_tIT_ET0_RKNS_9bitvectorERSC_ @ 374
;	long ibis::part::doCompare0<char, std::binder1st<std::equal_to<char> >, std::binder2nd<std::equal_to<char> > >(array_t<char> const&, std::binder1st<std::equal_to<char> >, std::binder2nd<std::equal_to<char> >, ibis::bitvector const&, ibis::bitvector&) const
	_ZNK4ibis4part10doCompare0IcSt9binder1stISt8equal_toIcEESt9binder2ndIS4_EEElRK7array_tIT_ET0_T1_RKNS_9bitvectorERSF_ @ 375
;	long ibis::part::doCompare0<char, std::binder1st<std::equal_to<char> >, std::binder2nd<std::less_equal<char> > >(array_t<char> const&, std::binder1st<std::equal_to<char> >, std::binder2nd<std::less_equal<char> >, ibis::bitvector const&, ibis::bitvector&) const
	_ZNK4ibis4part10doCompare0IcSt9binder1stISt8equal_toIcEESt9binder2ndISt10less_equalIcEEEElRK7array_tIT_ET0_T1_RKNS_9bitvectorERSH_ @ 376
;	long ibis::part::doCompare0<char, std::binder1st<std::equal_to<char> >, std::binder2nd<std::greater_equal<char> > >(array_t<char> const&, std::binder1st<std::equal_to<char> >, std::binder2nd<std::greater_equal<char> >, ibis::bitvector const&, ibis::bitvector&) const
	_ZNK4ibis4part10doCompare0IcSt9binder1stISt8equal_toIcEESt9binder2ndISt13greater_equalIcEEEElRK7array_tIT_ET0_T1_RKNS_9bitvectorERSH_ @ 377
;	long ibis::part::doCompare0<char, std::binder1st<std::equal_to<char> >, std::binder2nd<std::less<char> > >(array_t<char> const&, std::binder1st<std::equal_to<char> >, std::binder2nd<std::less<char> >, ibis::bitvector const&, ibis::bitvector&) const
	_ZNK4ibis4part10doCompare0IcSt9binder1stISt8equal_toIcEESt9binder2ndISt4lessIcEEEElRK7array_tIT_ET0_T1_RKNS_9bitvectorERSH_ @ 378
;	long ibis::part::doCompare0<char, std::binder1st<std::equal_to<char> >, std::binder2nd<std::greater<char> > >(array_t<char> const&, std::binder1st<std::equal_to<char> >, std::binder2nd<std::greater<char> >, ibis::bitvector const&, ibis::bitvector&) const
	_ZNK4ibis4part10doCompare0IcSt9binder1stISt8equal_toIcEESt9binder2ndISt7greaterIcEEEElRK7array_tIT_ET0_T1_RKNS_9bitvectorERSH_ @ 379
;	long ibis::part::doCompare0<char, std::binder2nd<std::less_equal<char> > >(array_t<char> const&, std::binder2nd<std::less_equal<char> >, ibis::bitvector const&, ibis::bitvector&) const
	_ZNK4ibis4part10doCompare0IcSt9binder2ndISt10less_equalIcEEEElRK7array_tIT_ET0_RKNS_9bitvectorERSC_ @ 380
;	long ibis::part::doCompare0<char, std::binder2nd<std::greater_equal<char> > >(array_t<char> const&, std::binder2nd<std::greater_equal<char> >, ibis::bitvector const&, ibis::bitvector&) const
	_ZNK4ibis4part10doCompare0IcSt9binder2ndISt13greater_equalIcEEEElRK7array_tIT_ET0_RKNS_9bitvectorERSC_ @ 381
;	long ibis::part::doCompare0<char, std::binder2nd<std::less<char> > >(array_t<char> const&, std::binder2nd<std::less<char> >, ibis::bitvector const&, ibis::bitvector&) const
	_ZNK4ibis4part10doCompare0IcSt9binder2ndISt4lessIcEEEElRK7array_tIT_ET0_RKNS_9bitvectorERSC_ @ 382
;	long ibis::part::doCompare0<char, std::binder2nd<std::greater<char> > >(array_t<char> const&, std::binder2nd<std::greater<char> >, ibis::bitvector const&, ibis::bitvector&) const
	_ZNK4ibis4part10doCompare0IcSt9binder2ndISt7greaterIcEEEElRK7array_tIT_ET0_RKNS_9bitvectorERSC_ @ 383
;	long ibis::part::doCompare0<char, std::binder2nd<std::equal_to<char> > >(array_t<char> const&, std::binder2nd<std::equal_to<char> >, ibis::bitvector const&, ibis::bitvector&) const
	_ZNK4ibis4part10doCompare0IcSt9binder2ndISt8equal_toIcEEEElRK7array_tIT_ET0_RKNS_9bitvectorERSC_ @ 384
;	long ibis::part::doCompare0<double, std::binder1st<std::less_equal<double> > >(array_t<double> const&, std::binder1st<std::less_equal<double> >, ibis::bitvector const&, ibis::bitvector&) const
	_ZNK4ibis4part10doCompare0IdSt9binder1stISt10less_equalIdEEEElRK7array_tIT_ET0_RKNS_9bitvectorERSC_ @ 385
;	long ibis::part::doCompare0<double, std::binder1st<std::less_equal<double> >, std::binder2nd<std::less_equal<double> > >(array_t<double> const&, std::binder1st<std::less_equal<double> >, std::binder2nd<std::less_equal<double> >, ibis::bitvector const&, ibis::bitvector&) const
	_ZNK4ibis4part10doCompare0IdSt9binder1stISt10less_equalIdEESt9binder2ndIS4_EEElRK7array_tIT_ET0_T1_RKNS_9bitvectorERSF_ @ 386
;	long ibis::part::doCompare0<double, std::binder1st<std::less_equal<double> >, std::binder2nd<std::greater_equal<double> > >(array_t<double> const&, std::binder1st<std::less_equal<double> >, std::binder2nd<std::greater_equal<double> >, ibis::bitvector const&, ibis::bitvector&) const
	_ZNK4ibis4part10doCompare0IdSt9binder1stISt10less_equalIdEESt9binder2ndISt13greater_equalIdEEEElRK7array_tIT_ET0_T1_RKNS_9bitvectorERSH_ @ 387
;	long ibis::part::doCompare0<double, std::binder1st<std::less_equal<double> >, std::binder2nd<std::less<double> > >(array_t<double> const&, std::binder1st<std::less_equal<double> >, std::binder2nd<std::less<double> >, ibis::bitvector const&, ibis::bitvector&) const
	_ZNK4ibis4part10doCompare0IdSt9binder1stISt10less_equalIdEESt9binder2ndISt4lessIdEEEElRK7array_tIT_ET0_T1_RKNS_9bitvectorERSH_ @ 388
;	long ibis::part::doCompare0<double, std::binder1st<std::less_equal<double> >, std::binder2nd<std::greater<double> > >(array_t<double> const&, std::binder1st<std::less_equal<double> >, std::binder2nd<std::greater<double> >, ibis::bitvector const&, ibis::bitvector&) const
	_ZNK4ibis4part10doCompare0IdSt9binder1stISt10less_equalIdEESt9binder2ndISt7greaterIdEEEElRK7array_tIT_ET0_T1_RKNS_9bitvectorERSH_ @ 389
;	long ibis::part::doCompare0<double, std::binder1st<std::less_equal<double> >, std::binder2nd<std::equal_to<double> > >(array_t<double> const&, std::binder1st<std::less_equal<double> >, std::binder2nd<std::equal_to<double> >, ibis::bitvector const&, ibis::bitvector&) const
	_ZNK4ibis4part10doCompare0IdSt9binder1stISt10less_equalIdEESt9binder2ndISt8equal_toIdEEEElRK7array_tIT_ET0_T1_RKNS_9bitvectorERSH_ @ 390
;	long ibis::part::doCompare0<double, std::binder1st<std::greater_equal<double> > >(array_t<double> const&, std::binder1st<std::greater_equal<double> >, ibis::bitvector const&, ibis::bitvector&) const
	_ZNK4ibis4part10doCompare0IdSt9binder1stISt13greater_equalIdEEEElRK7array_tIT_ET0_RKNS_9bitvectorERSC_ @ 391
;	long ibis::part::doCompare0<double, std::binder1st<std::greater_equal<double> >, std::binder2nd<std::greater_equal<double> > >(array_t<double> const&, std::binder1st<std::greater_equal<double> >, std::binder2nd<std::greater_equal<double> >, ibis::bitvector const&, ibis::bitvector&) const
	_ZNK4ibis4part10doCompare0IdSt9binder1stISt13greater_equalIdEESt9binder2ndIS4_EEElRK7array_tIT_ET0_T1_RKNS_9bitvectorERSF_ @ 392
;	long ibis::part::doCompare0<double, std::binder1st<std::greater_equal<double> >, std::binder2nd<std::less_equal<double> > >(array_t<double> const&, std::binder1st<std::greater_equal<double> >, std::binder2nd<std::less_equal<double> >, ibis::bitvector const&, ibis::bitvector&) const
	_ZNK4ibis4part10doCompare0IdSt9binder1stISt13greater_equalIdEESt9binder2ndISt10less_equalIdEEEElRK7array_tIT_ET0_T1_RKNS_9bitvectorERSH_ @ 393
;	long ibis::part::doCompare0<double, std::binder1st<std::greater_equal<double> >, std::binder2nd<std::less<double> > >(array_t<double> const&, std::binder1st<std::greater_equal<double> >, std::binder2nd<std::less<double> >, ibis::bitvector const&, ibis::bitvector&) const
	_ZNK4ibis4part10doCompare0IdSt9binder1stISt13greater_equalIdEESt9binder2ndISt4lessIdEEEElRK7array_tIT_ET0_T1_RKNS_9bitvectorERSH_ @ 394
;	long ibis::part::doCompare0<double, std::binder1st<std::greater_equal<double> >, std::binder2nd<std::greater<double> > >(array_t<double> const&, std::binder1st<std::greater_equal<double> >, std::binder2nd<std::greater<double> >, ibis::bitvector const&, ibis::bitvector&) const
	_ZNK4ibis4part10doCompare0IdSt9binder1stISt13greater_equalIdEESt9binder2ndISt7greaterIdEEEElRK7array_tIT_ET0_T1_RKNS_9bitvectorERSH_ @ 395
;	long ibis::part::doCompare0<double, std::binder1st<std::greater_equal<double> >, std::binder2nd<std::equal_to<double> > >(array_t<double> const&, std::binder1st<std::greater_equal<double> >, std::binder2nd<std::equal_to<double> >, ibis::bitvector const&, ibis::bitvector&) const
	_ZNK4ibis4part10doCompare0IdSt9binder1stISt13greater_equalIdEESt9binder2ndISt8equal_toIdEEEElRK7array_tIT_ET0_T1_RKNS_9bitvectorERSH_ @ 396
;	long ibis::part::doCompare0<double, std::binder1st<std::less<double> > >(array_t<double> const&, std::binder1st<std::less<double> >, ibis::bitvector const&, ibis::bitvector&) const
	_ZNK4ibis4part10doCompare0IdSt9binder1stISt4lessIdEEEElRK7array_tIT_ET0_RKNS_9bitvectorERSC_ @ 397
;	long ibis::part::doCompare0<double, std::binder1st<std::less<double> >, std::binder2nd<std::less<double> > >(array_t<double> const&, std::binder1st<std::less<double> >, std::binder2nd<std::less<double> >, ibis::bitvector const&, ibis::bitvector&) const
	_ZNK4ibis4part10doCompare0IdSt9binder1stISt4lessIdEESt9binder2ndIS4_EEElRK7array_tIT_ET0_T1_RKNS_9bitvectorERSF_ @ 398
;	long ibis::part::doCompare0<double, std::binder1st<std::less<double> >, std::binder2nd<std::less_equal<double> > >(array_t<double> const&, std::binder1st<std::less<double> >, std::binder2nd<std::less_equal<double> >, ibis::bitvector const&, ibis::bitvector&) const
	_ZNK4ibis4part10doCompare0IdSt9binder1stISt4lessIdEESt9binder2ndISt10less_equalIdEEEElRK7array_tIT_ET0_T1_RKNS_9bitvectorERSH_ @ 399
;	long ibis::part::doCompare0<double, std::binder1st<std::less<double> >, std::binder2nd<std::greater_equal<double> > >(array_t<double> const&, std::binder1st<std::less<double> >, std::binder2nd<std::greater_equal<double> >, ibis::bitvector const&, ibis::bitvector&) const
	_ZNK4ibis4part10doCompare0IdSt9binder1stISt4lessIdEESt9binder2ndISt13greater_equalIdEEEElRK7array_tIT_ET0_T1_RKNS_9bitvectorERSH_ @ 400
;	long ibis::part::doCompare0<double, std::binder1st<std::less<double> >, std::binder2nd<std::greater<double> > >(array_t<double> const&, std::binder1st<std::less<double> >, std::binder2nd<std::greater<double> >, ibis::bitvector const&, ibis::bitvector&) const
	_ZNK4ibis4part10doCompare0IdSt9binder1stISt4lessIdEESt9binder2ndISt7greaterIdEEEElRK7array_tIT_ET0_T1_RKNS_9bitvectorERSH_ @ 401
;	long ibis::part::doCompare0<double, std::binder1st<std::less<double> >, std::binder2nd<std::equal_to<double> > >(array_t<double> const&, std::binder1st<std::less<double> >, std::binder2nd<std::equal_to<double> >, ibis::bitvector const&, ibis::bitvector&) const
	_ZNK4ibis4part10doCompare0IdSt9binder1stISt4lessIdEESt9binder2ndISt8equal_toIdEEEElRK7array_tIT_ET0_T1_RKNS_9bitvectorERSH_ @ 402
;	long ibis::part::doCompare0<double, std::binder1st<std::greater<double> > >(array_t<double> const&, std::binder1st<std::greater<double> >, ibis::bitvector const&, ibis::bitvector&) const
	_ZNK4ibis4part10doCompare0IdSt9binder1stISt7greaterIdEEEElRK7array_tIT_ET0_RKNS_9bitvectorERSC_ @ 403
;	long ibis::part::doCompare0<double, std::binder1st<std::greater<double> >, std::binder2nd<std::greater<double> > >(array_t<double> const&, std::binder1st<std::greater<double> >, std::binder2nd<std::greater<double> >, ibis::bitvector const&, ibis::bitvector&) const
	_ZNK4ibis4part10doCompare0IdSt9binder1stISt7greaterIdEESt9binder2ndIS4_EEElRK7array_tIT_ET0_T1_RKNS_9bitvectorERSF_ @ 404
;	long ibis::part::doCompare0<double, std::binder1st<std::greater<double> >, std::binder2nd<std::less_equal<double> > >(array_t<double> const&, std::binder1st<std::greater<double> >, std::binder2nd<std::less_equal<double> >, ibis::bitvector const&, ibis::bitvector&) const
	_ZNK4ibis4part10doCompare0IdSt9binder1stISt7greaterIdEESt9binder2ndISt10less_equalIdEEEElRK7array_tIT_ET0_T1_RKNS_9bitvectorERSH_ @ 405
;	long ibis::part::doCompare0<double, std::binder1st<std::greater<double> >, std::binder2nd<std::greater_equal<double> > >(array_t<double> const&, std::binder1st<std::greater<double> >, std::binder2nd<std::greater_equal<double> >, ibis::bitvector const&, ibis::bitvector&) const
	_ZNK4ibis4part10doCompare0IdSt9binder1stISt7greaterIdEESt9binder2ndISt13greater_equalIdEEEElRK7array_tIT_ET0_T1_RKNS_9bitvectorERSH_ @ 406
;	long ibis::part::doCompare0<double, std::binder1st<std::greater<double> >, std::binder2nd<std::less<double> > >(array_t<double> const&, std::binder1st<std::greater<double> >, std::binder2nd<std::less<double> >, ibis::bitvector const&, ibis::bitvector&) const
	_ZNK4ibis4part10doCompare0IdSt9binder1stISt7greaterIdEESt9binder2ndISt4lessIdEEEElRK7array_tIT_ET0_T1_RKNS_9bitvectorERSH_ @ 407
;	long ibis::part::doCompare0<double, std::binder1st<std::greater<double> >, std::binder2nd<std::equal_to<double> > >(array_t<double> const&, std::binder1st<std::greater<double> >, std::binder2nd<std::equal_to<double> >, ibis::bitvector const&, ibis::bitvector&) const
	_ZNK4ibis4part10doCompare0IdSt9binder1stISt7greaterIdEESt9binder2ndISt8equal_toIdEEEElRK7array_tIT_ET0_T1_RKNS_9bitvectorERSH_ @ 408
;	long ibis::part::doCompare0<double, std::binder1st<std::equal_to<double> > >(array_t<double> const&, std::binder1st<std::equal_to<double> >, ibis::bitvector const&, ibis::bitvector&) const
	_ZNK4ibis4part10doCompare0IdSt9binder1stISt8equal_toIdEEEElRK7array_tIT_ET0_RKNS_9bitvectorERSC_ @ 409
;	long ibis::part::doCompare0<double, std::binder1st<std::equal_to<double> >, std::binder2nd<std::equal_to<double> > >(array_t<double> const&, std::binder1st<std::equal_to<double> >, std::binder2nd<std::equal_to<double> >, ibis::bitvector const&, ibis::bitvector&) const
	_ZNK4ibis4part10doCompare0IdSt9binder1stISt8equal_toIdEESt9binder2ndIS4_EEElRK7array_tIT_ET0_T1_RKNS_9bitvectorERSF_ @ 410
;	long ibis::part::doCompare0<double, std::binder1st<std::equal_to<double> >, std::binder2nd<std::less_equal<double> > >(array_t<double> const&, std::binder1st<std::equal_to<double> >, std::binder2nd<std::less_equal<double> >, ibis::bitvector const&, ibis::bitvector&) const
	_ZNK4ibis4part10doCompare0IdSt9binder1stISt8equal_toIdEESt9binder2ndISt10less_equalIdEEEElRK7array_tIT_ET0_T1_RKNS_9bitvectorERSH_ @ 411
;	long ibis::part::doCompare0<double, std::binder1st<std::equal_to<double> >, std::binder2nd<std::greater_equal<double> > >(array_t<double> const&, std::binder1st<std::equal_to<double> >, std::binder2nd<std::greater_equal<double> >, ibis::bitvector const&, ibis::bitvector&) const
	_ZNK4ibis4part10doCompare0IdSt9binder1stISt8equal_toIdEESt9binder2ndISt13greater_equalIdEEEElRK7array_tIT_ET0_T1_RKNS_9bitvectorERSH_ @ 412
;	long ibis::part::doCompare0<double, std::binder1st<std::equal_to<double> >, std::binder2nd<std::less<double> > >(array_t<double> const&, std::binder1st<std::equal_to<double> >, std::binder2nd<std::less<double> >, ibis::bitvector const&, ibis::bitvector&) const
	_ZNK4ibis4part10doCompare0IdSt9binder1stISt8equal_toIdEESt9binder2ndISt4lessIdEEEElRK7array_tIT_ET0_T1_RKNS_9bitvectorERSH_ @ 413
;	long ibis::part::doCompare0<double, std::binder1st<std::equal_to<double> >, std::binder2nd<std::greater<double> > >(array_t<double> const&, std::binder1st<std::equal_to<double> >, std::binder2nd<std::greater<double> >, ibis::bitvector const&, ibis::bitvector&) const
	_ZNK4ibis4part10doCompare0IdSt9binder1stISt8equal_toIdEESt9binder2ndISt7greaterIdEEEElRK7array_tIT_ET0_T1_RKNS_9bitvectorERSH_ @ 414
;	long ibis::part::doCompare0<double, std::binder2nd<std::less_equal<double> > >(array_t<double> const&, std::binder2nd<std::less_equal<double> >, ibis::bitvector const&, ibis::bitvector&) const
	_ZNK4ibis4part10doCompare0IdSt9binder2ndISt10less_equalIdEEEElRK7array_tIT_ET0_RKNS_9bitvectorERSC_ @ 415
;	long ibis::part::doCompare0<double, std::binder2nd<std::greater_equal<double> > >(array_t<double> const&, std::binder2nd<std::greater_equal<double> >, ibis::bitvector const&, ibis::bitvector&) const
	_ZNK4ibis4part10doCompare0IdSt9binder2ndISt13greater_equalIdEEEElRK7array_tIT_ET0_RKNS_9bitvectorERSC_ @ 416
;	long ibis::part::doCompare0<double, std::binder2nd<std::less<double> > >(array_t<double> const&, std::binder2nd<std::less<double> >, ibis::bitvector const&, ibis::bitvector&) const
	_ZNK4ibis4part10doCompare0IdSt9binder2ndISt4lessIdEEEElRK7array_tIT_ET0_RKNS_9bitvectorERSC_ @ 417
;	long ibis::part::doCompare0<double, std::binder2nd<std::greater<double> > >(array_t<double> const&, std::binder2nd<std::greater<double> >, ibis::bitvector const&, ibis::bitvector&) const
	_ZNK4ibis4part10doCompare0IdSt9binder2ndISt7greaterIdEEEElRK7array_tIT_ET0_RKNS_9bitvectorERSC_ @ 418
;	long ibis::part::doCompare0<double, std::binder2nd<std::equal_to<double> > >(array_t<double> const&, std::binder2nd<std::equal_to<double> >, ibis::bitvector const&, ibis::bitvector&) const
	_ZNK4ibis4part10doCompare0IdSt9binder2ndISt8equal_toIdEEEElRK7array_tIT_ET0_RKNS_9bitvectorERSC_ @ 419
;	long ibis::part::doCompare0<float, std::binder1st<std::less_equal<float> > >(array_t<float> const&, std::binder1st<std::less_equal<float> >, ibis::bitvector const&, ibis::bitvector&) const
	_ZNK4ibis4part10doCompare0IfSt9binder1stISt10less_equalIfEEEElRK7array_tIT_ET0_RKNS_9bitvectorERSC_ @ 420
;	long ibis::part::doCompare0<float, std::binder1st<std::less_equal<float> >, std::binder2nd<std::less_equal<float> > >(array_t<float> const&, std::binder1st<std::less_equal<float> >, std::binder2nd<std::less_equal<float> >, ibis::bitvector const&, ibis::bitvector&) const
	_ZNK4ibis4part10doCompare0IfSt9binder1stISt10less_equalIfEESt9binder2ndIS4_EEElRK7array_tIT_ET0_T1_RKNS_9bitvectorERSF_ @ 421
;	long ibis::part::doCompare0<float, std::binder1st<std::less_equal<float> >, std::binder2nd<std::greater_equal<float> > >(array_t<float> const&, std::binder1st<std::less_equal<float> >, std::binder2nd<std::greater_equal<float> >, ibis::bitvector const&, ibis::bitvector&) const
	_ZNK4ibis4part10doCompare0IfSt9binder1stISt10less_equalIfEESt9binder2ndISt13greater_equalIfEEEElRK7array_tIT_ET0_T1_RKNS_9bitvectorERSH_ @ 422
;	long ibis::part::doCompare0<float, std::binder1st<std::less_equal<float> >, std::binder2nd<std::less<float> > >(array_t<float> const&, std::binder1st<std::less_equal<float> >, std::binder2nd<std::less<float> >, ibis::bitvector const&, ibis::bitvector&) const
	_ZNK4ibis4part10doCompare0IfSt9binder1stISt10less_equalIfEESt9binder2ndISt4lessIfEEEElRK7array_tIT_ET0_T1_RKNS_9bitvectorERSH_ @ 423
;	long ibis::part::doCompare0<float, std::binder1st<std::less_equal<float> >, std::binder2nd<std::greater<float> > >(array_t<float> const&, std::binder1st<std::less_equal<float> >, std::binder2nd<std::greater<float> >, ibis::bitvector const&, ibis::bitvector&) const
	_ZNK4ibis4part10doCompare0IfSt9binder1stISt10less_equalIfEESt9binder2ndISt7greaterIfEEEElRK7array_tIT_ET0_T1_RKNS_9bitvectorERSH_ @ 424
;	long ibis::part::doCompare0<float, std::binder1st<std::less_equal<float> >, std::binder2nd<std::equal_to<float> > >(array_t<float> const&, std::binder1st<std::less_equal<float> >, std::binder2nd<std::equal_to<float> >, ibis::bitvector const&, ibis::bitvector&) const
	_ZNK4ibis4part10doCompare0IfSt9binder1stISt10less_equalIfEESt9binder2ndISt8equal_toIfEEEElRK7array_tIT_ET0_T1_RKNS_9bitvectorERSH_ @ 425
;	long ibis::part::doCompare0<float, std::binder1st<std::greater_equal<float> > >(array_t<float> const&, std::binder1st<std::greater_equal<float> >, ibis::bitvector const&, ibis::bitvector&) const
	_ZNK4ibis4part10doCompare0IfSt9binder1stISt13greater_equalIfEEEElRK7array_tIT_ET0_RKNS_9bitvectorERSC_ @ 426
;	long ibis::part::doCompare0<float, std::binder1st<std::greater_equal<float> >, std::binder2nd<std::greater_equal<float> > >(array_t<float> const&, std::binder1st<std::greater_equal<float> >, std::binder2nd<std::greater_equal<float> >, ibis::bitvector const&, ibis::bitvector&) const
	_ZNK4ibis4part10doCompare0IfSt9binder1stISt13greater_equalIfEESt9binder2ndIS4_EEElRK7array_tIT_ET0_T1_RKNS_9bitvectorERSF_ @ 427
;	long ibis::part::doCompare0<float, std::binder1st<std::greater_equal<float> >, std::binder2nd<std::less_equal<float> > >(array_t<float> const&, std::binder1st<std::greater_equal<float> >, std::binder2nd<std::less_equal<float> >, ibis::bitvector const&, ibis::bitvector&) const
	_ZNK4ibis4part10doCompare0IfSt9binder1stISt13greater_equalIfEESt9binder2ndISt10less_equalIfEEEElRK7array_tIT_ET0_T1_RKNS_9bitvectorERSH_ @ 428
;	long ibis::part::doCompare0<float, std::binder1st<std::greater_equal<float> >, std::binder2nd<std::less<float> > >(array_t<float> const&, std::binder1st<std::greater_equal<float> >, std::binder2nd<std::less<float> >, ibis::bitvector const&, ibis::bitvector&) const
	_ZNK4ibis4part10doCompare0IfSt9binder1stISt13greater_equalIfEESt9binder2ndISt4lessIfEEEElRK7array_tIT_ET0_T1_RKNS_9bitvectorERSH_ @ 429
;	long ibis::part::doCompare0<float, std::binder1st<std::greater_equal<float> >, std::binder2nd<std::greater<float> > >(array_t<float> const&, std::binder1st<std::greater_equal<float> >, std::binder2nd<std::greater<float> >, ibis::bitvector const&, ibis::bitvector&) const
	_ZNK4ibis4part10doCompare0IfSt9binder1stISt13greater_equalIfEESt9binder2ndISt7greaterIfEEEElRK7array_tIT_ET0_T1_RKNS_9bitvectorERSH_ @ 430
;	long ibis::part::doCompare0<float, std::binder1st<std::greater_equal<float> >, std::binder2nd<std::equal_to<float> > >(array_t<float> const&, std::binder1st<std::greater_equal<float> >, std::binder2nd<std::equal_to<float> >, ibis::bitvector const&, ibis::bitvector&) const
	_ZNK4ibis4part10doCompare0IfSt9binder1stISt13greater_equalIfEESt9binder2ndISt8equal_toIfEEEElRK7array_tIT_ET0_T1_RKNS_9bitvectorERSH_ @ 431
;	long ibis::part::doCompare0<float, std::binder1st<std::less<float> > >(array_t<float> const&, std::binder1st<std::less<float> >, ibis::bitvector const&, ibis::bitvector&) const
	_ZNK4ibis4part10doCompare0IfSt9binder1stISt4lessIfEEEElRK7array_tIT_ET0_RKNS_9bitvectorERSC_ @ 432
;	long ibis::part::doCompare0<float, std::binder1st<std::less<float> >, std::binder2nd<std::less<float> > >(array_t<float> const&, std::binder1st<std::less<float> >, std::binder2nd<std::less<float> >, ibis::bitvector const&, ibis::bitvector&) const
	_ZNK4ibis4part10doCompare0IfSt9binder1stISt4lessIfEESt9binder2ndIS4_EEElRK7array_tIT_ET0_T1_RKNS_9bitvectorERSF_ @ 433
;	long ibis::part::doCompare0<float, std::binder1st<std::less<float> >, std::binder2nd<std::less_equal<float> > >(array_t<float> const&, std::binder1st<std::less<float> >, std::binder2nd<std::less_equal<float> >, ibis::bitvector const&, ibis::bitvector&) const
	_ZNK4ibis4part10doCompare0IfSt9binder1stISt4lessIfEESt9binder2ndISt10less_equalIfEEEElRK7array_tIT_ET0_T1_RKNS_9bitvectorERSH_ @ 434
;	long ibis::part::doCompare0<float, std::binder1st<std::less<float> >, std::binder2nd<std::greater_equal<float> > >(array_t<float> const&, std::binder1st<std::less<float> >, std::binder2nd<std::greater_equal<float> >, ibis::bitvector const&, ibis::bitvector&) const
	_ZNK4ibis4part10doCompare0IfSt9binder1stISt4lessIfEESt9binder2ndISt13greater_equalIfEEEElRK7array_tIT_ET0_T1_RKNS_9bitvectorERSH_ @ 435
;	long ibis::part::doCompare0<float, std::binder1st<std::less<float> >, std::binder2nd<std::greater<float> > >(array_t<float> const&, std::binder1st<std::less<float> >, std::binder2nd<std::greater<float> >, ibis::bitvector const&, ibis::bitvector&) const
	_ZNK4ibis4part10doCompare0IfSt9binder1stISt4lessIfEESt9binder2ndISt7greaterIfEEEElRK7array_tIT_ET0_T1_RKNS_9bitvectorERSH_ @ 436
;	long ibis::part::doCompare0<float, std::binder1st<std::less<float> >, std::binder2nd<std::equal_to<float> > >(array_t<float> const&, std::binder1st<std::less<float> >, std::binder2nd<std::equal_to<float> >, ibis::bitvector const&, ibis::bitvector&) const
	_ZNK4ibis4part10doCompare0IfSt9binder1stISt4lessIfEESt9binder2ndISt8equal_toIfEEEElRK7array_tIT_ET0_T1_RKNS_9bitvectorERSH_ @ 437
;	long ibis::part::doCompare0<float, std::binder1st<std::greater<float> > >(array_t<float> const&, std::binder1st<std::greater<float> >, ibis::bitvector const&, ibis::bitvector&) const
	_ZNK4ibis4part10doCompare0IfSt9binder1stISt7greaterIfEEEElRK7array_tIT_ET0_RKNS_9bitvectorERSC_ @ 438
;	long ibis::part::doCompare0<float, std::binder1st<std::greater<float> >, std::binder2nd<std::greater<float> > >(array_t<float> const&, std::binder1st<std::greater<float> >, std::binder2nd<std::greater<float> >, ibis::bitvector const&, ibis::bitvector&) const
	_ZNK4ibis4part10doCompare0IfSt9binder1stISt7greaterIfEESt9binder2ndIS4_EEElRK7array_tIT_ET0_T1_RKNS_9bitvectorERSF_ @ 439
;	long ibis::part::doCompare0<float, std::binder1st<std::greater<float> >, std::binder2nd<std::less_equal<float> > >(array_t<float> const&, std::binder1st<std::greater<float> >, std::binder2nd<std::less_equal<float> >, ibis::bitvector const&, ibis::bitvector&) const
	_ZNK4ibis4part10doCompare0IfSt9binder1stISt7greaterIfEESt9binder2ndISt10less_equalIfEEEElRK7array_tIT_ET0_T1_RKNS_9bitvectorERSH_ @ 440
;	long ibis::part::doCompare0<float, std::binder1st<std::greater<float> >, std::binder2nd<std::greater_equal<float> > >(array_t<float> const&, std::binder1st<std::greater<float> >, std::binder2nd<std::greater_equal<float> >, ibis::bitvector const&, ibis::bitvector&) const
	_ZNK4ibis4part10doCompare0IfSt9binder1stISt7greaterIfEESt9binder2ndISt13greater_equalIfEEEElRK7array_tIT_ET0_T1_RKNS_9bitvectorERSH_ @ 441
;	long ibis::part::doCompare0<float, std::binder1st<std::greater<float> >, std::binder2nd<std::less<float> > >(array_t<float> const&, std::binder1st<std::greater<float> >, std::binder2nd<std::less<float> >, ibis::bitvector const&, ibis::bitvector&) const
	_ZNK4ibis4part10doCompare0IfSt9binder1stISt7greaterIfEESt9binder2ndISt4lessIfEEEElRK7array_tIT_ET0_T1_RKNS_9bitvectorERSH_ @ 442
;	long ibis::part::doCompare0<float, std::binder1st<std::greater<float> >, std::binder2nd<std::equal_to<float> > >(array_t<float> const&, std::binder1st<std::greater<float> >, std::binder2nd<std::equal_to<float> >, ibis::bitvector const&, ibis::bitvector&) const
	_ZNK4ibis4part10doCompare0IfSt9binder1stISt7greaterIfEESt9binder2ndISt8equal_toIfEEEElRK7array_tIT_ET0_T1_RKNS_9bitvectorERSH_ @ 443
;	long ibis::part::doCompare0<float, std::binder1st<std::equal_to<float> > >(array_t<float> const&, std::binder1st<std::equal_to<float> >, ibis::bitvector const&, ibis::bitvector&) const
	_ZNK4ibis4part10doCompare0IfSt9binder1stISt8equal_toIfEEEElRK7array_tIT_ET0_RKNS_9bitvectorERSC_ @ 444
;	long ibis::part::doCompare0<float, std::binder1st<std::equal_to<float> >, std::binder2nd<std::equal_to<float> > >(array_t<float> const&, std::binder1st<std::equal_to<float> >, std::binder2nd<std::equal_to<float> >, ibis::bitvector const&, ibis::bitvector&) const
	_ZNK4ibis4part10doCompare0IfSt9binder1stISt8equal_toIfEESt9binder2ndIS4_EEElRK7array_tIT_ET0_T1_RKNS_9bitvectorERSF_ @ 445
;	long ibis::part::doCompare0<float, std::binder1st<std::equal_to<float> >, std::binder2nd<std::less_equal<float> > >(array_t<float> const&, std::binder1st<std::equal_to<float> >, std::binder2nd<std::less_equal<float> >, ibis::bitvector const&, ibis::bitvector&) const
	_ZNK4ibis4part10doCompare0IfSt9binder1stISt8equal_toIfEESt9binder2ndISt10less_equalIfEEEElRK7array_tIT_ET0_T1_RKNS_9bitvectorERSH_ @ 446
;	long ibis::part::doCompare0<float, std::binder1st<std::equal_to<float> >, std::binder2nd<std::greater_equal<float> > >(array_t<float> const&, std::binder1st<std::equal_to<float> >, std::binder2nd<std::greater_equal<float> >, ibis::bitvector const&, ibis::bitvector&) const
	_ZNK4ibis4part10doCompare0IfSt9binder1stISt8equal_toIfEESt9binder2ndISt13greater_equalIfEEEElRK7array_tIT_ET0_T1_RKNS_9bitvectorERSH_ @ 447
;	long ibis::part::doCompare0<float, std::binder1st<std::equal_to<float> >, std::binder2nd<std::less<float> > >(array_t<float> const&, std::binder1st<std::equal_to<float> >, std::binder2nd<std::less<float> >, ibis::bitvector const&, ibis::bitvector&) const
	_ZNK4ibis4part10doCompare0IfSt9binder1stISt8equal_toIfEESt9binder2ndISt4lessIfEEEElRK7array_tIT_ET0_T1_RKNS_9bitvectorERSH_ @ 448
;	long ibis::part::doCompare0<float, std::binder1st<std::equal_to<float> >, std::binder2nd<std::greater<float> > >(array_t<float> const&, std::binder1st<std::equal_to<float> >, std::binder2nd<std::greater<float> >, ibis::bitvector const&, ibis::bitvector&) const
	_ZNK4ibis4part10doCompare0IfSt9binder1stISt8equal_toIfEESt9binder2ndISt7greaterIfEEEElRK7array_tIT_ET0_T1_RKNS_9bitvectorERSH_ @ 449
;	long ibis::part::doCompare0<float, std::binder2nd<std::less_equal<float> > >(array_t<float> const&, std::binder2nd<std::less_equal<float> >, ibis::bitvector const&, ibis::bitvector&) const
	_ZNK4ibis4part10doCompare0IfSt9binder2ndISt10less_equalIfEEEElRK7array_tIT_ET0_RKNS_9bitvectorERSC_ @ 450
;	long ibis::part::doCompare0<float, std::binder2nd<std::greater_equal<float> > >(array_t<float> const&, std::binder2nd<std::greater_equal<float> >, ibis::bitvector const&, ibis::bitvector&) const
	_ZNK4ibis4part10doCompare0IfSt9binder2ndISt13greater_equalIfEEEElRK7array_tIT_ET0_RKNS_9bitvectorERSC_ @ 451
;	long ibis::part::doCompare0<float, std::binder2nd<std::less<float> > >(array_t<float> const&, std::binder2nd<std::less<float> >, ibis::bitvector const&, ibis::bitvector&) const
	_ZNK4ibis4part10doCompare0IfSt9binder2ndISt4lessIfEEEElRK7array_tIT_ET0_RKNS_9bitvectorERSC_ @ 452
;	long ibis::part::doCompare0<float, std::binder2nd<std::greater<float> > >(array_t<float> const&, std::binder2nd<std::greater<float> >, ibis::bitvector const&, ibis::bitvector&) const
	_ZNK4ibis4part10doCompare0IfSt9binder2ndISt7greaterIfEEEElRK7array_tIT_ET0_RKNS_9bitvectorERSC_ @ 453
;	long ibis::part::doCompare0<float, std::binder2nd<std::equal_to<float> > >(array_t<float> const&, std::binder2nd<std::equal_to<float> >, ibis::bitvector const&, ibis::bitvector&) const
	_ZNK4ibis4part10doCompare0IfSt9binder2ndISt8equal_toIfEEEElRK7array_tIT_ET0_RKNS_9bitvectorERSC_ @ 454
;	long ibis::part::doCompare0<unsigned char, std::binder1st<std::less_equal<unsigned char> > >(array_t<unsigned char> const&, std::binder1st<std::less_equal<unsigned char> >, ibis::bitvector const&, ibis::bitvector&) const
	_ZNK4ibis4part10doCompare0IhSt9binder1stISt10less_equalIhEEEElRK7array_tIT_ET0_RKNS_9bitvectorERSC_ @ 455
;	long ibis::part::doCompare0<unsigned char, std::binder1st<std::less_equal<unsigned char> >, std::binder2nd<std::less_equal<unsigned char> > >(array_t<unsigned char> const&, std::binder1st<std::less_equal<unsigned char> >, std::binder2nd<std::less_equal<unsigned char> >, ibis::bitvector const&, ibis::bitvector&) const
	_ZNK4ibis4part10doCompare0IhSt9binder1stISt10less_equalIhEESt9binder2ndIS4_EEElRK7array_tIT_ET0_T1_RKNS_9bitvectorERSF_ @ 456
;	long ibis::part::doCompare0<unsigned char, std::binder1st<std::less_equal<unsigned char> >, std::binder2nd<std::greater_equal<unsigned char> > >(array_t<unsigned char> const&, std::binder1st<std::less_equal<unsigned char> >, std::binder2nd<std::greater_equal<unsigned char> >, ibis::bitvector const&, ibis::bitvector&) const
	_ZNK4ibis4part10doCompare0IhSt9binder1stISt10less_equalIhEESt9binder2ndISt13greater_equalIhEEEElRK7array_tIT_ET0_T1_RKNS_9bitvectorERSH_ @ 457
;	long ibis::part::doCompare0<unsigned char, std::binder1st<std::less_equal<unsigned char> >, std::binder2nd<std::less<unsigned char> > >(array_t<unsigned char> const&, std::binder1st<std::less_equal<unsigned char> >, std::binder2nd<std::less<unsigned char> >, ibis::bitvector const&, ibis::bitvector&) const
	_ZNK4ibis4part10doCompare0IhSt9binder1stISt10less_equalIhEESt9binder2ndISt4lessIhEEEElRK7array_tIT_ET0_T1_RKNS_9bitvectorERSH_ @ 458
;	long ibis::part::doCompare0<unsigned char, std::binder1st<std::less_equal<unsigned char> >, std::binder2nd<std::greater<unsigned char> > >(array_t<unsigned char> const&, std::binder1st<std::less_equal<unsigned char> >, std::binder2nd<std::greater<unsigned char> >, ibis::bitvector const&, ibis::bitvector&) const
	_ZNK4ibis4part10doCompare0IhSt9binder1stISt10less_equalIhEESt9binder2ndISt7greaterIhEEEElRK7array_tIT_ET0_T1_RKNS_9bitvectorERSH_ @ 459
;	long ibis::part::doCompare0<unsigned char, std::binder1st<std::less_equal<unsigned char> >, std::binder2nd<std::equal_to<unsigned char> > >(array_t<unsigned char> const&, std::binder1st<std::less_equal<unsigned char> >, std::binder2nd<std::equal_to<unsigned char> >, ibis::bitvector const&, ibis::bitvector&) const
	_ZNK4ibis4part10doCompare0IhSt9binder1stISt10less_equalIhEESt9binder2ndISt8equal_toIhEEEElRK7array_tIT_ET0_T1_RKNS_9bitvectorERSH_ @ 460
;	long ibis::part::doCompare0<unsigned char, std::binder1st<std::greater_equal<unsigned char> > >(array_t<unsigned char> const&, std::binder1st<std::greater_equal<unsigned char> >, ibis::bitvector const&, ibis::bitvector&) const
	_ZNK4ibis4part10doCompare0IhSt9binder1stISt13greater_equalIhEEEElRK7array_tIT_ET0_RKNS_9bitvectorERSC_ @ 461
;	long ibis::part::doCompare0<unsigned char, std::binder1st<std::greater_equal<unsigned char> >, std::binder2nd<std::greater_equal<unsigned char> > >(array_t<unsigned char> const&, std::binder1st<std::greater_equal<unsigned char> >, std::binder2nd<std::greater_equal<unsigned char> >, ibis::bitvector const&, ibis::bitvector&) const
	_ZNK4ibis4part10doCompare0IhSt9binder1stISt13greater_equalIhEESt9binder2ndIS4_EEElRK7array_tIT_ET0_T1_RKNS_9bitvectorERSF_ @ 462
;	long ibis::part::doCompare0<unsigned char, std::binder1st<std::greater_equal<unsigned char> >, std::binder2nd<std::less_equal<unsigned char> > >(array_t<unsigned char> const&, std::binder1st<std::greater_equal<unsigned char> >, std::binder2nd<std::less_equal<unsigned char> >, ibis::bitvector const&, ibis::bitvector&) const
	_ZNK4ibis4part10doCompare0IhSt9binder1stISt13greater_equalIhEESt9binder2ndISt10less_equalIhEEEElRK7array_tIT_ET0_T1_RKNS_9bitvectorERSH_ @ 463
;	long ibis::part::doCompare0<unsigned char, std::binder1st<std::greater_equal<unsigned char> >, std::binder2nd<std::less<unsigned char> > >(array_t<unsigned char> const&, std::binder1st<std::greater_equal<unsigned char> >, std::binder2nd<std::less<unsigned char> >, ibis::bitvector const&, ibis::bitvector&) const
	_ZNK4ibis4part10doCompare0IhSt9binder1stISt13greater_equalIhEESt9binder2ndISt4lessIhEEEElRK7array_tIT_ET0_T1_RKNS_9bitvectorERSH_ @ 464
;	long ibis::part::doCompare0<unsigned char, std::binder1st<std::greater_equal<unsigned char> >, std::binder2nd<std::greater<unsigned char> > >(array_t<unsigned char> const&, std::binder1st<std::greater_equal<unsigned char> >, std::binder2nd<std::greater<unsigned char> >, ibis::bitvector const&, ibis::bitvector&) const
	_ZNK4ibis4part10doCompare0IhSt9binder1stISt13greater_equalIhEESt9binder2ndISt7greaterIhEEEElRK7array_tIT_ET0_T1_RKNS_9bitvectorERSH_ @ 465
;	long ibis::part::doCompare0<unsigned char, std::binder1st<std::greater_equal<unsigned char> >, std::binder2nd<std::equal_to<unsigned char> > >(array_t<unsigned char> const&, std::binder1st<std::greater_equal<unsigned char> >, std::binder2nd<std::equal_to<unsigned char> >, ibis::bitvector const&, ibis::bitvector&) const
	_ZNK4ibis4part10doCompare0IhSt9binder1stISt13greater_equalIhEESt9binder2ndISt8equal_toIhEEEElRK7array_tIT_ET0_T1_RKNS_9bitvectorERSH_ @ 466
;	long ibis::part::doCompare0<unsigned char, std::binder1st<std::less<unsigned char> > >(array_t<unsigned char> const&, std::binder1st<std::less<unsigned char> >, ibis::bitvector const&, ibis::bitvector&) const
	_ZNK4ibis4part10doCompare0IhSt9binder1stISt4lessIhEEEElRK7array_tIT_ET0_RKNS_9bitvectorERSC_ @ 467
;	long ibis::part::doCompare0<unsigned char, std::binder1st<std::less<unsigned char> >, std::binder2nd<std::less<unsigned char> > >(array_t<unsigned char> const&, std::binder1st<std::less<unsigned char> >, std::binder2nd<std::less<unsigned char> >, ibis::bitvector const&, ibis::bitvector&) const
	_ZNK4ibis4part10doCompare0IhSt9binder1stISt4lessIhEESt9binder2ndIS4_EEElRK7array_tIT_ET0_T1_RKNS_9bitvectorERSF_ @ 468
;	long ibis::part::doCompare0<unsigned char, std::binder1st<std::less<unsigned char> >, std::binder2nd<std::less_equal<unsigned char> > >(array_t<unsigned char> const&, std::binder1st<std::less<unsigned char> >, std::binder2nd<std::less_equal<unsigned char> >, ibis::bitvector const&, ibis::bitvector&) const
	_ZNK4ibis4part10doCompare0IhSt9binder1stISt4lessIhEESt9binder2ndISt10less_equalIhEEEElRK7array_tIT_ET0_T1_RKNS_9bitvectorERSH_ @ 469
;	long ibis::part::doCompare0<unsigned char, std::binder1st<std::less<unsigned char> >, std::binder2nd<std::greater_equal<unsigned char> > >(array_t<unsigned char> const&, std::binder1st<std::less<unsigned char> >, std::binder2nd<std::greater_equal<unsigned char> >, ibis::bitvector const&, ibis::bitvector&) const
	_ZNK4ibis4part10doCompare0IhSt9binder1stISt4lessIhEESt9binder2ndISt13greater_equalIhEEEElRK7array_tIT_ET0_T1_RKNS_9bitvectorERSH_ @ 470
;	long ibis::part::doCompare0<unsigned char, std::binder1st<std::less<unsigned char> >, std::binder2nd<std::greater<unsigned char> > >(array_t<unsigned char> const&, std::binder1st<std::less<unsigned char> >, std::binder2nd<std::greater<unsigned char> >, ibis::bitvector const&, ibis::bitvector&) const
	_ZNK4ibis4part10doCompare0IhSt9binder1stISt4lessIhEESt9binder2ndISt7greaterIhEEEElRK7array_tIT_ET0_T1_RKNS_9bitvectorERSH_ @ 471
;	long ibis::part::doCompare0<unsigned char, std::binder1st<std::less<unsigned char> >, std::binder2nd<std::equal_to<unsigned char> > >(array_t<unsigned char> const&, std::binder1st<std::less<unsigned char> >, std::binder2nd<std::equal_to<unsigned char> >, ibis::bitvector const&, ibis::bitvector&) const
	_ZNK4ibis4part10doCompare0IhSt9binder1stISt4lessIhEESt9binder2ndISt8equal_toIhEEEElRK7array_tIT_ET0_T1_RKNS_9bitvectorERSH_ @ 472
;	long ibis::part::doCompare0<unsigned char, std::binder1st<std::greater<unsigned char> > >(array_t<unsigned char> const&, std::binder1st<std::greater<unsigned char> >, ibis::bitvector const&, ibis::bitvector&) const
	_ZNK4ibis4part10doCompare0IhSt9binder1stISt7greaterIhEEEElRK7array_tIT_ET0_RKNS_9bitvectorERSC_ @ 473
;	long ibis::part::doCompare0<unsigned char, std::binder1st<std::greater<unsigned char> >, std::binder2nd<std::greater<unsigned char> > >(array_t<unsigned char> const&, std::binder1st<std::greater<unsigned char> >, std::binder2nd<std::greater<unsigned char> >, ibis::bitvector const&, ibis::bitvector&) const
	_ZNK4ibis4part10doCompare0IhSt9binder1stISt7greaterIhEESt9binder2ndIS4_EEElRK7array_tIT_ET0_T1_RKNS_9bitvectorERSF_ @ 474
;	long ibis::part::doCompare0<unsigned char, std::binder1st<std::greater<unsigned char> >, std::binder2nd<std::less_equal<unsigned char> > >(array_t<unsigned char> const&, std::binder1st<std::greater<unsigned char> >, std::binder2nd<std::less_equal<unsigned char> >, ibis::bitvector const&, ibis::bitvector&) const
	_ZNK4ibis4part10doCompare0IhSt9binder1stISt7greaterIhEESt9binder2ndISt10less_equalIhEEEElRK7array_tIT_ET0_T1_RKNS_9bitvectorERSH_ @ 475
;	long ibis::part::doCompare0<unsigned char, std::binder1st<std::greater<unsigned char> >, std::binder2nd<std::greater_equal<unsigned char> > >(array_t<unsigned char> const&, std::binder1st<std::greater<unsigned char> >, std::binder2nd<std::greater_equal<unsigned char> >, ibis::bitvector const&, ibis::bitvector&) const
	_ZNK4ibis4part10doCompare0IhSt9binder1stISt7greaterIhEESt9binder2ndISt13greater_equalIhEEEElRK7array_tIT_ET0_T1_RKNS_9bitvectorERSH_ @ 476
;	long ibis::part::doCompare0<unsigned char, std::binder1st<std::greater<unsigned char> >, std::binder2nd<std::less<unsigned char> > >(array_t<unsigned char> const&, std::binder1st<std::greater<unsigned char> >, std::binder2nd<std::less<unsigned char> >, ibis::bitvector const&, ibis::bitvector&) const
	_ZNK4ibis4part10doCompare0IhSt9binder1stISt7greaterIhEESt9binder2ndISt4lessIhEEEElRK7array_tIT_ET0_T1_RKNS_9bitvectorERSH_ @ 477
;	long ibis::part::doCompare0<unsigned char, std::binder1st<std::greater<unsigned char> >, std::binder2nd<std::equal_to<unsigned char> > >(array_t<unsigned char> const&, std::binder1st<std::greater<unsigned char> >, std::binder2nd<std::equal_to<unsigned char> >, ibis::bitvector const&, ibis::bitvector&) const
	_ZNK4ibis4part10doCompare0IhSt9binder1stISt7greaterIhEESt9binder2ndISt8equal_toIhEEEElRK7array_tIT_ET0_T1_RKNS_9bitvectorERSH_ @ 478
;	long ibis::part::doCompare0<unsigned char, std::binder1st<std::equal_to<unsigned char> > >(array_t<unsigned char> const&, std::binder1st<std::equal_to<unsigned char> >, ibis::bitvector const&, ibis::bitvector&) const
	_ZNK4ibis4part10doCompare0IhSt9binder1stISt8equal_toIhEEEElRK7array_tIT_ET0_RKNS_9bitvectorERSC_ @ 479
;	long ibis::part::doCompare0<unsigned char, std::binder1st<std::equal_to<unsigned char> >, std::binder2nd<std::equal_to<unsigned char> > >(array_t<unsigned char> const&, std::binder1st<std::equal_to<unsigned char> >, std::binder2nd<std::equal_to<unsigned char> >, ibis::bitvector const&, ibis::bitvector&) const
	_ZNK4ibis4part10doCompare0IhSt9binder1stISt8equal_toIhEESt9binder2ndIS4_EEElRK7array_tIT_ET0_T1_RKNS_9bitvectorERSF_ @ 480
;	long ibis::part::doCompare0<unsigned char, std::binder1st<std::equal_to<unsigned char> >, std::binder2nd<std::less_equal<unsigned char> > >(array_t<unsigned char> const&, std::binder1st<std::equal_to<unsigned char> >, std::binder2nd<std::less_equal<unsigned char> >, ibis::bitvector const&, ibis::bitvector&) const
	_ZNK4ibis4part10doCompare0IhSt9binder1stISt8equal_toIhEESt9binder2ndISt10less_equalIhEEEElRK7array_tIT_ET0_T1_RKNS_9bitvectorERSH_ @ 481
;	long ibis::part::doCompare0<unsigned char, std::binder1st<std::equal_to<unsigned char> >, std::binder2nd<std::greater_equal<unsigned char> > >(array_t<unsigned char> const&, std::binder1st<std::equal_to<unsigned char> >, std::binder2nd<std::greater_equal<unsigned char> >, ibis::bitvector const&, ibis::bitvector&) const
	_ZNK4ibis4part10doCompare0IhSt9binder1stISt8equal_toIhEESt9binder2ndISt13greater_equalIhEEEElRK7array_tIT_ET0_T1_RKNS_9bitvectorERSH_ @ 482
;	long ibis::part::doCompare0<unsigned char, std::binder1st<std::equal_to<unsigned char> >, std::binder2nd<std::less<unsigned char> > >(array_t<unsigned char> const&, std::binder1st<std::equal_to<unsigned char> >, std::binder2nd<std::less<unsigned char> >, ibis::bitvector const&, ibis::bitvector&) const
	_ZNK4ibis4part10doCompare0IhSt9binder1stISt8equal_toIhEESt9binder2ndISt4lessIhEEEElRK7array_tIT_ET0_T1_RKNS_9bitvectorERSH_ @ 483
;	long ibis::part::doCompare0<unsigned char, std::binder1st<std::equal_to<unsigned char> >, std::binder2nd<std::greater<unsigned char> > >(array_t<unsigned char> const&, std::binder1st<std::equal_to<unsigned char> >, std::binder2nd<std::greater<unsigned char> >, ibis::bitvector const&, ibis::bitvector&) const
	_ZNK4ibis4part10doCompare0IhSt9binder1stISt8equal_toIhEESt9binder2ndISt7greaterIhEEEElRK7array_tIT_ET0_T1_RKNS_9bitvectorERSH_ @ 484
;	long ibis::part::doCompare0<unsigned char, std::binder2nd<std::less_equal<unsigned char> > >(array_t<unsigned char> const&, std::binder2nd<std::less_equal<unsigned char> >, ibis::bitvector const&, ibis::bitvector&) const
	_ZNK4ibis4part10doCompare0IhSt9binder2ndISt10less_equalIhEEEElRK7array_tIT_ET0_RKNS_9bitvectorERSC_ @ 485
;	long ibis::part::doCompare0<unsigned char, std::binder2nd<std::greater_equal<unsigned char> > >(array_t<unsigned char> const&, std::binder2nd<std::greater_equal<unsigned char> >, ibis::bitvector const&, ibis::bitvector&) const
	_ZNK4ibis4part10doCompare0IhSt9binder2ndISt13greater_equalIhEEEElRK7array_tIT_ET0_RKNS_9bitvectorERSC_ @ 486
;	long ibis::part::doCompare0<unsigned char, std::binder2nd<std::less<unsigned char> > >(array_t<unsigned char> const&, std::binder2nd<std::less<unsigned char> >, ibis::bitvector const&, ibis::bitvector&) const
	_ZNK4ibis4part10doCompare0IhSt9binder2ndISt4lessIhEEEElRK7array_tIT_ET0_RKNS_9bitvectorERSC_ @ 487
;	long ibis::part::doCompare0<unsigned char, std::binder2nd<std::greater<unsigned char> > >(array_t<unsigned char> const&, std::binder2nd<std::greater<unsigned char> >, ibis::bitvector const&, ibis::bitvector&) const
	_ZNK4ibis4part10doCompare0IhSt9binder2ndISt7greaterIhEEEElRK7array_tIT_ET0_RKNS_9bitvectorERSC_ @ 488
;	long ibis::part::doCompare0<unsigned char, std::binder2nd<std::equal_to<unsigned char> > >(array_t<unsigned char> const&, std::binder2nd<std::equal_to<unsigned char> >, ibis::bitvector const&, ibis::bitvector&) const
	_ZNK4ibis4part10doCompare0IhSt9binder2ndISt8equal_toIhEEEElRK7array_tIT_ET0_RKNS_9bitvectorERSC_ @ 489
;	long ibis::part::doCompare0<long, std::binder1st<std::less_equal<long> > >(array_t<long> const&, std::binder1st<std::less_equal<long> >, ibis::bitvector const&, ibis::bitvector&) const
	_ZNK4ibis4part10doCompare0IlSt9binder1stISt10less_equalIlEEEElRK7array_tIT_ET0_RKNS_9bitvectorERSC_ @ 490
;	long ibis::part::doCompare0<long, std::binder1st<std::less_equal<long> >, std::binder2nd<std::less_equal<long> > >(array_t<long> const&, std::binder1st<std::less_equal<long> >, std::binder2nd<std::less_equal<long> >, ibis::bitvector const&, ibis::bitvector&) const
	_ZNK4ibis4part10doCompare0IlSt9binder1stISt10less_equalIlEESt9binder2ndIS4_EEElRK7array_tIT_ET0_T1_RKNS_9bitvectorERSF_ @ 491
;	long ibis::part::doCompare0<long, std::binder1st<std::less_equal<long> >, std::binder2nd<std::greater_equal<long> > >(array_t<long> const&, std::binder1st<std::less_equal<long> >, std::binder2nd<std::greater_equal<long> >, ibis::bitvector const&, ibis::bitvector&) const
	_ZNK4ibis4part10doCompare0IlSt9binder1stISt10less_equalIlEESt9binder2ndISt13greater_equalIlEEEElRK7array_tIT_ET0_T1_RKNS_9bitvectorERSH_ @ 492
;	long ibis::part::doCompare0<long, std::binder1st<std::less_equal<long> >, std::binder2nd<std::less<long> > >(array_t<long> const&, std::binder1st<std::less_equal<long> >, std::binder2nd<std::less<long> >, ibis::bitvector const&, ibis::bitvector&) const
	_ZNK4ibis4part10doCompare0IlSt9binder1stISt10less_equalIlEESt9binder2ndISt4lessIlEEEElRK7array_tIT_ET0_T1_RKNS_9bitvectorERSH_ @ 493
;	long ibis::part::doCompare0<long, std::binder1st<std::less_equal<long> >, std::binder2nd<std::greater<long> > >(array_t<long> const&, std::binder1st<std::less_equal<long> >, std::binder2nd<std::greater<long> >, ibis::bitvector const&, ibis::bitvector&) const
	_ZNK4ibis4part10doCompare0IlSt9binder1stISt10less_equalIlEESt9binder2ndISt7greaterIlEEEElRK7array_tIT_ET0_T1_RKNS_9bitvectorERSH_ @ 494
;	long ibis::part::doCompare0<long, std::binder1st<std::less_equal<long> >, std::binder2nd<std::equal_to<long> > >(array_t<long> const&, std::binder1st<std::less_equal<long> >, std::binder2nd<std::equal_to<long> >, ibis::bitvector const&, ibis::bitvector&) const
	_ZNK4ibis4part10doCompare0IlSt9binder1stISt10less_equalIlEESt9binder2ndISt8equal_toIlEEEElRK7array_tIT_ET0_T1_RKNS_9bitvectorERSH_ @ 495
;	long ibis::part::doCompare0<long, std::binder1st<std::greater_equal<long> > >(array_t<long> const&, std::binder1st<std::greater_equal<long> >, ibis::bitvector const&, ibis::bitvector&) const
	_ZNK4ibis4part10doCompare0IlSt9binder1stISt13greater_equalIlEEEElRK7array_tIT_ET0_RKNS_9bitvectorERSC_ @ 496
;	long ibis::part::doCompare0<long, std::binder1st<std::greater_equal<long> >, std::binder2nd<std::greater_equal<long> > >(array_t<long> const&, std::binder1st<std::greater_equal<long> >, std::binder2nd<std::greater_equal<long> >, ibis::bitvector const&, ibis::bitvector&) const
	_ZNK4ibis4part10doCompare0IlSt9binder1stISt13greater_equalIlEESt9binder2ndIS4_EEElRK7array_tIT_ET0_T1_RKNS_9bitvectorERSF_ @ 497
;	long ibis::part::doCompare0<long, std::binder1st<std::greater_equal<long> >, std::binder2nd<std::less_equal<long> > >(array_t<long> const&, std::binder1st<std::greater_equal<long> >, std::binder2nd<std::less_equal<long> >, ibis::bitvector const&, ibis::bitvector&) const
	_ZNK4ibis4part10doCompare0IlSt9binder1stISt13greater_equalIlEESt9binder2ndISt10less_equalIlEEEElRK7array_tIT_ET0_T1_RKNS_9bitvectorERSH_ @ 498
;	long ibis::part::doCompare0<long, std::binder1st<std::greater_equal<long> >, std::binder2nd<std::less<long> > >(array_t<long> const&, std::binder1st<std::greater_equal<long> >, std::binder2nd<std::less<long> >, ibis::bitvector const&, ibis::bitvector&) const
	_ZNK4ibis4part10doCompare0IlSt9binder1stISt13greater_equalIlEESt9binder2ndISt4lessIlEEEElRK7array_tIT_ET0_T1_RKNS_9bitvectorERSH_ @ 499
;	long ibis::part::doCompare0<long, std::binder1st<std::greater_equal<long> >, std::binder2nd<std::greater<long> > >(array_t<long> const&, std::binder1st<std::greater_equal<long> >, std::binder2nd<std::greater<long> >, ibis::bitvector const&, ibis::bitvector&) const
	_ZNK4ibis4part10doCompare0IlSt9binder1stISt13greater_equalIlEESt9binder2ndISt7greaterIlEEEElRK7array_tIT_ET0_T1_RKNS_9bitvectorERSH_ @ 500
;	long ibis::part::doCompare0<long, std::binder1st<std::greater_equal<long> >, std::binder2nd<std::equal_to<long> > >(array_t<long> const&, std::binder1st<std::greater_equal<long> >, std::binder2nd<std::equal_to<long> >, ibis::bitvector const&, ibis::bitvector&) const
	_ZNK4ibis4part10doCompare0IlSt9binder1stISt13greater_equalIlEESt9binder2ndISt8equal_toIlEEEElRK7array_tIT_ET0_T1_RKNS_9bitvectorERSH_ @ 501
;	long ibis::part::doCompare0<long, std::binder1st<std::less<long> > >(array_t<long> const&, std::binder1st<std::less<long> >, ibis::bitvector const&, ibis::bitvector&) const
	_ZNK4ibis4part10doCompare0IlSt9binder1stISt4lessIlEEEElRK7array_tIT_ET0_RKNS_9bitvectorERSC_ @ 502
;	long ibis::part::doCompare0<long, std::binder1st<std::less<long> >, std::binder2nd<std::less<long> > >(array_t<long> const&, std::binder1st<std::less<long> >, std::binder2nd<std::less<long> >, ibis::bitvector const&, ibis::bitvector&) const
	_ZNK4ibis4part10doCompare0IlSt9binder1stISt4lessIlEESt9binder2ndIS4_EEElRK7array_tIT_ET0_T1_RKNS_9bitvectorERSF_ @ 503
;	long ibis::part::doCompare0<long, std::binder1st<std::less<long> >, std::binder2nd<std::less_equal<long> > >(array_t<long> const&, std::binder1st<std::less<long> >, std::binder2nd<std::less_equal<long> >, ibis::bitvector const&, ibis::bitvector&) const
	_ZNK4ibis4part10doCompare0IlSt9binder1stISt4lessIlEESt9binder2ndISt10less_equalIlEEEElRK7array_tIT_ET0_T1_RKNS_9bitvectorERSH_ @ 504
;	long ibis::part::doCompare0<long, std::binder1st<std::less<long> >, std::binder2nd<std::greater_equal<long> > >(array_t<long> const&, std::binder1st<std::less<long> >, std::binder2nd<std::greater_equal<long> >, ibis::bitvector const&, ibis::bitvector&) const
	_ZNK4ibis4part10doCompare0IlSt9binder1stISt4lessIlEESt9binder2ndISt13greater_equalIlEEEElRK7array_tIT_ET0_T1_RKNS_9bitvectorERSH_ @ 505
;	long ibis::part::doCompare0<long, std::binder1st<std::less<long> >, std::binder2nd<std::greater<long> > >(array_t<long> const&, std::binder1st<std::less<long> >, std::binder2nd<std::greater<long> >, ibis::bitvector const&, ibis::bitvector&) const
	_ZNK4ibis4part10doCompare0IlSt9binder1stISt4lessIlEESt9binder2ndISt7greaterIlEEEElRK7array_tIT_ET0_T1_RKNS_9bitvectorERSH_ @ 506
;	long ibis::part::doCompare0<long, std::binder1st<std::less<long> >, std::binder2nd<std::equal_to<long> > >(array_t<long> const&, std::binder1st<std::less<long> >, std::binder2nd<std::equal_to<long> >, ibis::bitvector const&, ibis::bitvector&) const
	_ZNK4ibis4part10doCompare0IlSt9binder1stISt4lessIlEESt9binder2ndISt8equal_toIlEEEElRK7array_tIT_ET0_T1_RKNS_9bitvectorERSH_ @ 507
;	long ibis::part::doCompare0<long, std::binder1st<std::greater<long> > >(array_t<long> const&, std::binder1st<std::greater<long> >, ibis::bitvector const&, ibis::bitvector&) const
	_ZNK4ibis4part10doCompare0IlSt9binder1stISt7greaterIlEEEElRK7array_tIT_ET0_RKNS_9bitvectorERSC_ @ 508
;	long ibis::part::doCompare0<long, std::binder1st<std::greater<long> >, std::binder2nd<std::greater<long> > >(array_t<long> const&, std::binder1st<std::greater<long> >, std::binder2nd<std::greater<long> >, ibis::bitvector const&, ibis::bitvector&) const
	_ZNK4ibis4part10doCompare0IlSt9binder1stISt7greaterIlEESt9binder2ndIS4_EEElRK7array_tIT_ET0_T1_RKNS_9bitvectorERSF_ @ 509
;	long ibis::part::doCompare0<long, std::binder1st<std::greater<long> >, std::binder2nd<std::less_equal<long> > >(array_t<long> const&, std::binder1st<std::greater<long> >, std::binder2nd<std::less_equal<long> >, ibis::bitvector const&, ibis::bitvector&) const
	_ZNK4ibis4part10doCompare0IlSt9binder1stISt7greaterIlEESt9binder2ndISt10less_equalIlEEEElRK7array_tIT_ET0_T1_RKNS_9bitvectorERSH_ @ 510
;	long ibis::part::doCompare0<long, std::binder1st<std::greater<long> >, std::binder2nd<std::greater_equal<long> > >(array_t<long> const&, std::binder1st<std::greater<long> >, std::binder2nd<std::greater_equal<long> >, ibis::bitvector const&, ibis::bitvector&) const
	_ZNK4ibis4part10doCompare0IlSt9binder1stISt7greaterIlEESt9binder2ndISt13greater_equalIlEEEElRK7array_tIT_ET0_T1_RKNS_9bitvectorERSH_ @ 511
;	long ibis::part::doCompare0<long, std::binder1st<std::greater<long> >, std::binder2nd<std::less<long> > >(array_t<long> const&, std::binder1st<std::greater<long> >, std::binder2nd<std::less<long> >, ibis::bitvector const&, ibis::bitvector&) const
	_ZNK4ibis4part10doCompare0IlSt9binder1stISt7greaterIlEESt9binder2ndISt4lessIlEEEElRK7array_tIT_ET0_T1_RKNS_9bitvectorERSH_ @ 512
;	long ibis::part::doCompare0<long, std::binder1st<std::greater<long> >, std::binder2nd<std::equal_to<long> > >(array_t<long> const&, std::binder1st<std::greater<long> >, std::binder2nd<std::equal_to<long> >, ibis::bitvector const&, ibis::bitvector&) const
	_ZNK4ibis4part10doCompare0IlSt9binder1stISt7greaterIlEESt9binder2ndISt8equal_toIlEEEElRK7array_tIT_ET0_T1_RKNS_9bitvectorERSH_ @ 513
;	long ibis::part::doCompare0<long, std::binder1st<std::equal_to<long> > >(array_t<long> const&, std::binder1st<std::equal_to<long> >, ibis::bitvector const&, ibis::bitvector&) const
	_ZNK4ibis4part10doCompare0IlSt9binder1stISt8equal_toIlEEEElRK7array_tIT_ET0_RKNS_9bitvectorERSC_ @ 514
;	long ibis::part::doCompare0<long, std::binder1st<std::equal_to<long> >, std::binder2nd<std::equal_to<long> > >(array_t<long> const&, std::binder1st<std::equal_to<long> >, std::binder2nd<std::equal_to<long> >, ibis::bitvector const&, ibis::bitvector&) const
	_ZNK4ibis4part10doCompare0IlSt9binder1stISt8equal_toIlEESt9binder2ndIS4_EEElRK7array_tIT_ET0_T1_RKNS_9bitvectorERSF_ @ 515
;	long ibis::part::doCompare0<long, std::binder1st<std::equal_to<long> >, std::binder2nd<std::less_equal<long> > >(array_t<long> const&, std::binder1st<std::equal_to<long> >, std::binder2nd<std::less_equal<long> >, ibis::bitvector const&, ibis::bitvector&) const
	_ZNK4ibis4part10doCompare0IlSt9binder1stISt8equal_toIlEESt9binder2ndISt10less_equalIlEEEElRK7array_tIT_ET0_T1_RKNS_9bitvectorERSH_ @ 516
;	long ibis::part::doCompare0<long, std::binder1st<std::equal_to<long> >, std::binder2nd<std::greater_equal<long> > >(array_t<long> const&, std::binder1st<std::equal_to<long> >, std::binder2nd<std::greater_equal<long> >, ibis::bitvector const&, ibis::bitvector&) const
	_ZNK4ibis4part10doCompare0IlSt9binder1stISt8equal_toIlEESt9binder2ndISt13greater_equalIlEEEElRK7array_tIT_ET0_T1_RKNS_9bitvectorERSH_ @ 517
;	long ibis::part::doCompare0<long, std::binder1st<std::equal_to<long> >, std::binder2nd<std::less<long> > >(array_t<long> const&, std::binder1st<std::equal_to<long> >, std::binder2nd<std::less<long> >, ibis::bitvector const&, ibis::bitvector&) const
	_ZNK4ibis4part10doCompare0IlSt9binder1stISt8equal_toIlEESt9binder2ndISt4lessIlEEEElRK7array_tIT_ET0_T1_RKNS_9bitvectorERSH_ @ 518
;	long ibis::part::doCompare0<long, std::binder1st<std::equal_to<long> >, std::binder2nd<std::greater<long> > >(array_t<long> const&, std::binder1st<std::equal_to<long> >, std::binder2nd<std::greater<long> >, ibis::bitvector const&, ibis::bitvector&) const
	_ZNK4ibis4part10doCompare0IlSt9binder1stISt8equal_toIlEESt9binder2ndISt7greaterIlEEEElRK7array_tIT_ET0_T1_RKNS_9bitvectorERSH_ @ 519
;	long ibis::part::doCompare0<long, std::binder2nd<std::less_equal<long> > >(array_t<long> const&, std::binder2nd<std::less_equal<long> >, ibis::bitvector const&, ibis::bitvector&) const
	_ZNK4ibis4part10doCompare0IlSt9binder2ndISt10less_equalIlEEEElRK7array_tIT_ET0_RKNS_9bitvectorERSC_ @ 520
;	long ibis::part::doCompare0<long, std::binder2nd<std::greater_equal<long> > >(array_t<long> const&, std::binder2nd<std::greater_equal<long> >, ibis::bitvector const&, ibis::bitvector&) const
	_ZNK4ibis4part10doCompare0IlSt9binder2ndISt13greater_equalIlEEEElRK7array_tIT_ET0_RKNS_9bitvectorERSC_ @ 521
;	long ibis::part::doCompare0<long, std::binder2nd<std::less<long> > >(array_t<long> const&, std::binder2nd<std::less<long> >, ibis::bitvector const&, ibis::bitvector&) const
	_ZNK4ibis4part10doCompare0IlSt9binder2ndISt4lessIlEEEElRK7array_tIT_ET0_RKNS_9bitvectorERSC_ @ 522
;	long ibis::part::doCompare0<long, std::binder2nd<std::greater<long> > >(array_t<long> const&, std::binder2nd<std::greater<long> >, ibis::bitvector const&, ibis::bitvector&) const
	_ZNK4ibis4part10doCompare0IlSt9binder2ndISt7greaterIlEEEElRK7array_tIT_ET0_RKNS_9bitvectorERSC_ @ 523
;	long ibis::part::doCompare0<long, std::binder2nd<std::equal_to<long> > >(array_t<long> const&, std::binder2nd<std::equal_to<long> >, ibis::bitvector const&, ibis::bitvector&) const
	_ZNK4ibis4part10doCompare0IlSt9binder2ndISt8equal_toIlEEEElRK7array_tIT_ET0_RKNS_9bitvectorERSC_ @ 524
;	long ibis::part::doCompare0<unsigned long, std::binder1st<std::less_equal<unsigned long> > >(array_t<unsigned long> const&, std::binder1st<std::less_equal<unsigned long> >, ibis::bitvector const&, ibis::bitvector&) const
	_ZNK4ibis4part10doCompare0ImSt9binder1stISt10less_equalImEEEElRK7array_tIT_ET0_RKNS_9bitvectorERSC_ @ 525
;	long ibis::part::doCompare0<unsigned long, std::binder1st<std::less_equal<unsigned long> >, std::binder2nd<std::less_equal<unsigned long> > >(array_t<unsigned long> const&, std::binder1st<std::less_equal<unsigned long> >, std::binder2nd<std::less_equal<unsigned long> >, ibis::bitvector const&, ibis::bitvector&) const
	_ZNK4ibis4part10doCompare0ImSt9binder1stISt10less_equalImEESt9binder2ndIS4_EEElRK7array_tIT_ET0_T1_RKNS_9bitvectorERSF_ @ 526
;	long ibis::part::doCompare0<unsigned long, std::binder1st<std::less_equal<unsigned long> >, std::binder2nd<std::greater_equal<unsigned long> > >(array_t<unsigned long> const&, std::binder1st<std::less_equal<unsigned long> >, std::binder2nd<std::greater_equal<unsigned long> >, ibis::bitvector const&, ibis::bitvector&) const
	_ZNK4ibis4part10doCompare0ImSt9binder1stISt10less_equalImEESt9binder2ndISt13greater_equalImEEEElRK7array_tIT_ET0_T1_RKNS_9bitvectorERSH_ @ 527
;	long ibis::part::doCompare0<unsigned long, std::binder1st<std::less_equal<unsigned long> >, std::binder2nd<std::less<unsigned long> > >(array_t<unsigned long> const&, std::binder1st<std::less_equal<unsigned long> >, std::binder2nd<std::less<unsigned long> >, ibis::bitvector const&, ibis::bitvector&) const
	_ZNK4ibis4part10doCompare0ImSt9binder1stISt10less_equalImEESt9binder2ndISt4lessImEEEElRK7array_tIT_ET0_T1_RKNS_9bitvectorERSH_ @ 528
;	long ibis::part::doCompare0<unsigned long, std::binder1st<std::less_equal<unsigned long> >, std::binder2nd<std::greater<unsigned long> > >(array_t<unsigned long> const&, std::binder1st<std::less_equal<unsigned long> >, std::binder2nd<std::greater<unsigned long> >, ibis::bitvector const&, ibis::bitvector&) const
	_ZNK4ibis4part10doCompare0ImSt9binder1stISt10less_equalImEESt9binder2ndISt7greaterImEEEElRK7array_tIT_ET0_T1_RKNS_9bitvectorERSH_ @ 529
;	long ibis::part::doCompare0<unsigned long, std::binder1st<std::less_equal<unsigned long> >, std::binder2nd<std::equal_to<unsigned long> > >(array_t<unsigned long> const&, std::binder1st<std::less_equal<unsigned long> >, std::binder2nd<std::equal_to<unsigned long> >, ibis::bitvector const&, ibis::bitvector&) const
	_ZNK4ibis4part10doCompare0ImSt9binder1stISt10less_equalImEESt9binder2ndISt8equal_toImEEEElRK7array_tIT_ET0_T1_RKNS_9bitvectorERSH_ @ 530
;	long ibis::part::doCompare0<unsigned long, std::binder1st<std::greater_equal<unsigned long> > >(array_t<unsigned long> const&, std::binder1st<std::greater_equal<unsigned long> >, ibis::bitvector const&, ibis::bitvector&) const
	_ZNK4ibis4part10doCompare0ImSt9binder1stISt13greater_equalImEEEElRK7array_tIT_ET0_RKNS_9bitvectorERSC_ @ 531
;	long ibis::part::doCompare0<unsigned long, std::binder1st<std::greater_equal<unsigned long> >, std::binder2nd<std::greater_equal<unsigned long> > >(array_t<unsigned long> const&, std::binder1st<std::greater_equal<unsigned long> >, std::binder2nd<std::greater_equal<unsigned long> >, ibis::bitvector const&, ibis::bitvector&) const
	_ZNK4ibis4part10doCompare0ImSt9binder1stISt13greater_equalImEESt9binder2ndIS4_EEElRK7array_tIT_ET0_T1_RKNS_9bitvectorERSF_ @ 532
;	long ibis::part::doCompare0<unsigned long, std::binder1st<std::greater_equal<unsigned long> >, std::binder2nd<std::less_equal<unsigned long> > >(array_t<unsigned long> const&, std::binder1st<std::greater_equal<unsigned long> >, std::binder2nd<std::less_equal<unsigned long> >, ibis::bitvector const&, ibis::bitvector&) const
	_ZNK4ibis4part10doCompare0ImSt9binder1stISt13greater_equalImEESt9binder2ndISt10less_equalImEEEElRK7array_tIT_ET0_T1_RKNS_9bitvectorERSH_ @ 533
;	long ibis::part::doCompare0<unsigned long, std::binder1st<std::greater_equal<unsigned long> >, std::binder2nd<std::less<unsigned long> > >(array_t<unsigned long> const&, std::binder1st<std::greater_equal<unsigned long> >, std::binder2nd<std::less<unsigned long> >, ibis::bitvector const&, ibis::bitvector&) const
	_ZNK4ibis4part10doCompare0ImSt9binder1stISt13greater_equalImEESt9binder2ndISt4lessImEEEElRK7array_tIT_ET0_T1_RKNS_9bitvectorERSH_ @ 534
;	long ibis::part::doCompare0<unsigned long, std::binder1st<std::greater_equal<unsigned long> >, std::binder2nd<std::greater<unsigned long> > >(array_t<unsigned long> const&, std::binder1st<std::greater_equal<unsigned long> >, std::binder2nd<std::greater<unsigned long> >, ibis::bitvector const&, ibis::bitvector&) const
	_ZNK4ibis4part10doCompare0ImSt9binder1stISt13greater_equalImEESt9binder2ndISt7greaterImEEEElRK7array_tIT_ET0_T1_RKNS_9bitvectorERSH_ @ 535
;	long ibis::part::doCompare0<unsigned long, std::binder1st<std::greater_equal<unsigned long> >, std::binder2nd<std::equal_to<unsigned long> > >(array_t<unsigned long> const&, std::binder1st<std::greater_equal<unsigned long> >, std::binder2nd<std::equal_to<unsigned long> >, ibis::bitvector const&, ibis::bitvector&) const
	_ZNK4ibis4part10doCompare0ImSt9binder1stISt13greater_equalImEESt9binder2ndISt8equal_toImEEEElRK7array_tIT_ET0_T1_RKNS_9bitvectorERSH_ @ 536
;	long ibis::part::doCompare0<unsigned long, std::binder1st<std::less<unsigned long> > >(array_t<unsigned long> const&, std::binder1st<std::less<unsigned long> >, ibis::bitvector const&, ibis::bitvector&) const
	_ZNK4ibis4part10doCompare0ImSt9binder1stISt4lessImEEEElRK7array_tIT_ET0_RKNS_9bitvectorERSC_ @ 537
;	long ibis::part::doCompare0<unsigned long, std::binder1st<std::less<unsigned long> >, std::binder2nd<std::less<unsigned long> > >(array_t<unsigned long> const&, std::binder1st<std::less<unsigned long> >, std::binder2nd<std::less<unsigned long> >, ibis::bitvector const&, ibis::bitvector&) const
	_ZNK4ibis4part10doCompare0ImSt9binder1stISt4lessImEESt9binder2ndIS4_EEElRK7array_tIT_ET0_T1_RKNS_9bitvectorERSF_ @ 538
;	long ibis::part::doCompare0<unsigned long, std::binder1st<std::less<unsigned long> >, std::binder2nd<std::less_equal<unsigned long> > >(array_t<unsigned long> const&, std::binder1st<std::less<unsigned long> >, std::binder2nd<std::less_equal<unsigned long> >, ibis::bitvector const&, ibis::bitvector&) const
	_ZNK4ibis4part10doCompare0ImSt9binder1stISt4lessImEESt9binder2ndISt10less_equalImEEEElRK7array_tIT_ET0_T1_RKNS_9bitvectorERSH_ @ 539
;	long ibis::part::doCompare0<unsigned long, std::binder1st<std::less<unsigned long> >, std::binder2nd<std::greater_equal<unsigned long> > >(array_t<unsigned long> const&, std::binder1st<std::less<unsigned long> >, std::binder2nd<std::greater_equal<unsigned long> >, ibis::bitvector const&, ibis::bitvector&) const
	_ZNK4ibis4part10doCompare0ImSt9binder1stISt4lessImEESt9binder2ndISt13greater_equalImEEEElRK7array_tIT_ET0_T1_RKNS_9bitvectorERSH_ @ 540
;	long ibis::part::doCompare0<unsigned long, std::binder1st<std::less<unsigned long> >, std::binder2nd<std::greater<unsigned long> > >(array_t<unsigned long> const&, std::binder1st<std::less<unsigned long> >, std::binder2nd<std::greater<unsigned long> >, ibis::bitvector const&, ibis::bitvector&) const
	_ZNK4ibis4part10doCompare0ImSt9binder1stISt4lessImEESt9binder2ndISt7greaterImEEEElRK7array_tIT_ET0_T1_RKNS_9bitvectorERSH_ @ 541
;	long ibis::part::doCompare0<unsigned long, std::binder1st<std::less<unsigned long> >, std::binder2nd<std::equal_to<unsigned long> > >(array_t<unsigned long> const&, std::binder1st<std::less<unsigned long> >, std::binder2nd<std::equal_to<unsigned long> >, ibis::bitvector const&, ibis::bitvector&) const
	_ZNK4ibis4part10doCompare0ImSt9binder1stISt4lessImEESt9binder2ndISt8equal_toImEEEElRK7array_tIT_ET0_T1_RKNS_9bitvectorERSH_ @ 542
;	long ibis::part::doCompare0<unsigned long, std::binder1st<std::greater<unsigned long> > >(array_t<unsigned long> const&, std::binder1st<std::greater<unsigned long> >, ibis::bitvector const&, ibis::bitvector&) const
	_ZNK4ibis4part10doCompare0ImSt9binder1stISt7greaterImEEEElRK7array_tIT_ET0_RKNS_9bitvectorERSC_ @ 543
;	long ibis::part::doCompare0<unsigned long, std::binder1st<std::greater<unsigned long> >, std::binder2nd<std::greater<unsigned long> > >(array_t<unsigned long> const&, std::binder1st<std::greater<unsigned long> >, std::binder2nd<std::greater<unsigned long> >, ibis::bitvector const&, ibis::bitvector&) const
	_ZNK4ibis4part10doCompare0ImSt9binder1stISt7greaterImEESt9binder2ndIS4_EEElRK7array_tIT_ET0_T1_RKNS_9bitvectorERSF_ @ 544
;	long ibis::part::doCompare0<unsigned long, std::binder1st<std::greater<unsigned long> >, std::binder2nd<std::less_equal<unsigned long> > >(array_t<unsigned long> const&, std::binder1st<std::greater<unsigned long> >, std::binder2nd<std::less_equal<unsigned long> >, ibis::bitvector const&, ibis::bitvector&) const
	_ZNK4ibis4part10doCompare0ImSt9binder1stISt7greaterImEESt9binder2ndISt10less_equalImEEEElRK7array_tIT_ET0_T1_RKNS_9bitvectorERSH_ @ 545
;	long ibis::part::doCompare0<unsigned long, std::binder1st<std::greater<unsigned long> >, std::binder2nd<std::greater_equal<unsigned long> > >(array_t<unsigned long> const&, std::binder1st<std::greater<unsigned long> >, std::binder2nd<std::greater_equal<unsigned long> >, ibis::bitvector const&, ibis::bitvector&) const
	_ZNK4ibis4part10doCompare0ImSt9binder1stISt7greaterImEESt9binder2ndISt13greater_equalImEEEElRK7array_tIT_ET0_T1_RKNS_9bitvectorERSH_ @ 546
;	long ibis::part::doCompare0<unsigned long, std::binder1st<std::greater<unsigned long> >, std::binder2nd<std::less<unsigned long> > >(array_t<unsigned long> const&, std::binder1st<std::greater<unsigned long> >, std::binder2nd<std::less<unsigned long> >, ibis::bitvector const&, ibis::bitvector&) const
	_ZNK4ibis4part10doCompare0ImSt9binder1stISt7greaterImEESt9binder2ndISt4lessImEEEElRK7array_tIT_ET0_T1_RKNS_9bitvectorERSH_ @ 547
;	long ibis::part::doCompare0<unsigned long, std::binder1st<std::greater<unsigned long> >, std::binder2nd<std::equal_to<unsigned long> > >(array_t<unsigned long> const&, std::binder1st<std::greater<unsigned long> >, std::binder2nd<std::equal_to<unsigned long> >, ibis::bitvector const&, ibis::bitvector&) const
	_ZNK4ibis4part10doCompare0ImSt9binder1stISt7greaterImEESt9binder2ndISt8equal_toImEEEElRK7array_tIT_ET0_T1_RKNS_9bitvectorERSH_ @ 548
;	long ibis::part::doCompare0<unsigned long, std::binder1st<std::equal_to<unsigned long> > >(array_t<unsigned long> const&, std::binder1st<std::equal_to<unsigned long> >, ibis::bitvector const&, ibis::bitvector&) const
	_ZNK4ibis4part10doCompare0ImSt9binder1stISt8equal_toImEEEElRK7array_tIT_ET0_RKNS_9bitvectorERSC_ @ 549
;	long ibis::part::doCompare0<unsigned long, std::binder1st<std::equal_to<unsigned long> >, std::binder2nd<std::equal_to<unsigned long> > >(array_t<unsigned long> const&, std::binder1st<std::equal_to<unsigned long> >, std::binder2nd<std::equal_to<unsigned long> >, ibis::bitvector const&, ibis::bitvector&) const
	_ZNK4ibis4part10doCompare0ImSt9binder1stISt8equal_toImEESt9binder2ndIS4_EEElRK7array_tIT_ET0_T1_RKNS_9bitvectorERSF_ @ 550
;	long ibis::part::doCompare0<unsigned long, std::binder1st<std::equal_to<unsigned long> >, std::binder2nd<std::less_equal<unsigned long> > >(array_t<unsigned long> const&, std::binder1st<std::equal_to<unsigned long> >, std::binder2nd<std::less_equal<unsigned long> >, ibis::bitvector const&, ibis::bitvector&) const
	_ZNK4ibis4part10doCompare0ImSt9binder1stISt8equal_toImEESt9binder2ndISt10less_equalImEEEElRK7array_tIT_ET0_T1_RKNS_9bitvectorERSH_ @ 551
;	long ibis::part::doCompare0<unsigned long, std::binder1st<std::equal_to<unsigned long> >, std::binder2nd<std::greater_equal<unsigned long> > >(array_t<unsigned long> const&, std::binder1st<std::equal_to<unsigned long> >, std::binder2nd<std::greater_equal<unsigned long> >, ibis::bitvector const&, ibis::bitvector&) const
	_ZNK4ibis4part10doCompare0ImSt9binder1stISt8equal_toImEESt9binder2ndISt13greater_equalImEEEElRK7array_tIT_ET0_T1_RKNS_9bitvectorERSH_ @ 552
;	long ibis::part::doCompare0<unsigned long, std::binder1st<std::equal_to<unsigned long> >, std::binder2nd<std::less<unsigned long> > >(array_t<unsigned long> const&, std::binder1st<std::equal_to<unsigned long> >, std::binder2nd<std::less<unsigned long> >, ibis::bitvector const&, ibis::bitvector&) const
	_ZNK4ibis4part10doCompare0ImSt9binder1stISt8equal_toImEESt9binder2ndISt4lessImEEEElRK7array_tIT_ET0_T1_RKNS_9bitvectorERSH_ @ 553
;	long ibis::part::doCompare0<unsigned long, std::binder1st<std::equal_to<unsigned long> >, std::binder2nd<std::greater<unsigned long> > >(array_t<unsigned long> const&, std::binder1st<std::equal_to<unsigned long> >, std::binder2nd<std::greater<unsigned long> >, ibis::bitvector const&, ibis::bitvector&) const
	_ZNK4ibis4part10doCompare0ImSt9binder1stISt8equal_toImEESt9binder2ndISt7greaterImEEEElRK7array_tIT_ET0_T1_RKNS_9bitvectorERSH_ @ 554
;	long ibis::part::doCompare0<unsigned long, std::binder2nd<std::less_equal<unsigned long> > >(array_t<unsigned long> const&, std::binder2nd<std::less_equal<unsigned long> >, ibis::bitvector const&, ibis::bitvector&) const
	_ZNK4ibis4part10doCompare0ImSt9binder2ndISt10less_equalImEEEElRK7array_tIT_ET0_RKNS_9bitvectorERSC_ @ 555
;	long ibis::part::doCompare0<unsigned long, std::binder2nd<std::greater_equal<unsigned long> > >(array_t<unsigned long> const&, std::binder2nd<std::greater_equal<unsigned long> >, ibis::bitvector const&, ibis::bitvector&) const
	_ZNK4ibis4part10doCompare0ImSt9binder2ndISt13greater_equalImEEEElRK7array_tIT_ET0_RKNS_9bitvectorERSC_ @ 556
;	long ibis::part::doCompare0<unsigned long, std::binder2nd<std::less<unsigned long> > >(array_t<unsigned long> const&, std::binder2nd<std::less<unsigned long> >, ibis::bitvector const&, ibis::bitvector&) const
	_ZNK4ibis4part10doCompare0ImSt9binder2ndISt4lessImEEEElRK7array_tIT_ET0_RKNS_9bitvectorERSC_ @ 557
;	long ibis::part::doCompare0<unsigned long, std::binder2nd<std::greater<unsigned long> > >(array_t<unsigned long> const&, std::binder2nd<std::greater<unsigned long> >, ibis::bitvector const&, ibis::bitvector&) const
	_ZNK4ibis4part10doCompare0ImSt9binder2ndISt7greaterImEEEElRK7array_tIT_ET0_RKNS_9bitvectorERSC_ @ 558
;	long ibis::part::doCompare0<unsigned long, std::binder2nd<std::equal_to<unsigned long> > >(array_t<unsigned long> const&, std::binder2nd<std::equal_to<unsigned long> >, ibis::bitvector const&, ibis::bitvector&) const
	_ZNK4ibis4part10doCompare0ImSt9binder2ndISt8equal_toImEEEElRK7array_tIT_ET0_RKNS_9bitvectorERSC_ @ 559
;	long ibis::part::doCompare0<short, std::binder1st<std::less_equal<short> > >(array_t<short> const&, std::binder1st<std::less_equal<short> >, ibis::bitvector const&, ibis::bitvector&) const
	_ZNK4ibis4part10doCompare0IsSt9binder1stISt10less_equalIsEEEElRK7array_tIT_ET0_RKNS_9bitvectorERSC_ @ 560
;	long ibis::part::doCompare0<short, std::binder1st<std::less_equal<short> >, std::binder2nd<std::less_equal<short> > >(array_t<short> const&, std::binder1st<std::less_equal<short> >, std::binder2nd<std::less_equal<short> >, ibis::bitvector const&, ibis::bitvector&) const
	_ZNK4ibis4part10doCompare0IsSt9binder1stISt10less_equalIsEESt9binder2ndIS4_EEElRK7array_tIT_ET0_T1_RKNS_9bitvectorERSF_ @ 561
;	long ibis::part::doCompare0<short, std::binder1st<std::less_equal<short> >, std::binder2nd<std::greater_equal<short> > >(array_t<short> const&, std::binder1st<std::less_equal<short> >, std::binder2nd<std::greater_equal<short> >, ibis::bitvector const&, ibis::bitvector&) const
	_ZNK4ibis4part10doCompare0IsSt9binder1stISt10less_equalIsEESt9binder2ndISt13greater_equalIsEEEElRK7array_tIT_ET0_T1_RKNS_9bitvectorERSH_ @ 562
;	long ibis::part::doCompare0<short, std::binder1st<std::less_equal<short> >, std::binder2nd<std::less<short> > >(array_t<short> const&, std::binder1st<std::less_equal<short> >, std::binder2nd<std::less<short> >, ibis::bitvector const&, ibis::bitvector&) const
	_ZNK4ibis4part10doCompare0IsSt9binder1stISt10less_equalIsEESt9binder2ndISt4lessIsEEEElRK7array_tIT_ET0_T1_RKNS_9bitvectorERSH_ @ 563
;	long ibis::part::doCompare0<short, std::binder1st<std::less_equal<short> >, std::binder2nd<std::greater<short> > >(array_t<short> const&, std::binder1st<std::less_equal<short> >, std::binder2nd<std::greater<short> >, ibis::bitvector const&, ibis::bitvector&) const
	_ZNK4ibis4part10doCompare0IsSt9binder1stISt10less_equalIsEESt9binder2ndISt7greaterIsEEEElRK7array_tIT_ET0_T1_RKNS_9bitvectorERSH_ @ 564
;	long ibis::part::doCompare0<short, std::binder1st<std::less_equal<short> >, std::binder2nd<std::equal_to<short> > >(array_t<short> const&, std::binder1st<std::less_equal<short> >, std::binder2nd<std::equal_to<short> >, ibis::bitvector const&, ibis::bitvector&) const
	_ZNK4ibis4part10doCompare0IsSt9binder1stISt10less_equalIsEESt9binder2ndISt8equal_toIsEEEElRK7array_tIT_ET0_T1_RKNS_9bitvectorERSH_ @ 565
;	long ibis::part::doCompare0<short, std::binder1st<std::greater_equal<short> > >(array_t<short> const&, std::binder1st<std::greater_equal<short> >, ibis::bitvector const&, ibis::bitvector&) const
	_ZNK4ibis4part10doCompare0IsSt9binder1stISt13greater_equalIsEEEElRK7array_tIT_ET0_RKNS_9bitvectorERSC_ @ 566
;	long ibis::part::doCompare0<short, std::binder1st<std::greater_equal<short> >, std::binder2nd<std::greater_equal<short> > >(array_t<short> const&, std::binder1st<std::greater_equal<short> >, std::binder2nd<std::greater_equal<short> >, ibis::bitvector const&, ibis::bitvector&) const
	_ZNK4ibis4part10doCompare0IsSt9binder1stISt13greater_equalIsEESt9binder2ndIS4_EEElRK7array_tIT_ET0_T1_RKNS_9bitvectorERSF_ @ 567
;	long ibis::part::doCompare0<short, std::binder1st<std::greater_equal<short> >, std::binder2nd<std::less_equal<short> > >(array_t<short> const&, std::binder1st<std::greater_equal<short> >, std::binder2nd<std::less_equal<short> >, ibis::bitvector const&, ibis::bitvector&) const
	_ZNK4ibis4part10doCompare0IsSt9binder1stISt13greater_equalIsEESt9binder2ndISt10less_equalIsEEEElRK7array_tIT_ET0_T1_RKNS_9bitvectorERSH_ @ 568
;	long ibis::part::doCompare0<short, std::binder1st<std::greater_equal<short> >, std::binder2nd<std::less<short> > >(array_t<short> const&, std::binder1st<std::greater_equal<short> >, std::binder2nd<std::less<short> >, ibis::bitvector const&, ibis::bitvector&) const
	_ZNK4ibis4part10doCompare0IsSt9binder1stISt13greater_equalIsEESt9binder2ndISt4lessIsEEEElRK7array_tIT_ET0_T1_RKNS_9bitvectorERSH_ @ 569
;	long ibis::part::doCompare0<short, std::binder1st<std::greater_equal<short> >, std::binder2nd<std::greater<short> > >(array_t<short> const&, std::binder1st<std::greater_equal<short> >, std::binder2nd<std::greater<short> >, ibis::bitvector const&, ibis::bitvector&) const
	_ZNK4ibis4part10doCompare0IsSt9binder1stISt13greater_equalIsEESt9binder2ndISt7greaterIsEEEElRK7array_tIT_ET0_T1_RKNS_9bitvectorERSH_ @ 570
;	long ibis::part::doCompare0<short, std::binder1st<std::greater_equal<short> >, std::binder2nd<std::equal_to<short> > >(array_t<short> const&, std::binder1st<std::greater_equal<short> >, std::binder2nd<std::equal_to<short> >, ibis::bitvector const&, ibis::bitvector&) const
	_ZNK4ibis4part10doCompare0IsSt9binder1stISt13greater_equalIsEESt9binder2ndISt8equal_toIsEEEElRK7array_tIT_ET0_T1_RKNS_9bitvectorERSH_ @ 571
;	long ibis::part::doCompare0<short, std::binder1st<std::less<short> > >(array_t<short> const&, std::binder1st<std::less<short> >, ibis::bitvector const&, ibis::bitvector&) const
	_ZNK4ibis4part10doCompare0IsSt9binder1stISt4lessIsEEEElRK7array_tIT_ET0_RKNS_9bitvectorERSC_ @ 572
;	long ibis::part::doCompare0<short, std::binder1st<std::less<short> >, std::binder2nd<std::less<short> > >(array_t<short> const&, std::binder1st<std::less<short> >, std::binder2nd<std::less<short> >, ibis::bitvector const&, ibis::bitvector&) const
	_ZNK4ibis4part10doCompare0IsSt9binder1stISt4lessIsEESt9binder2ndIS4_EEElRK7array_tIT_ET0_T1_RKNS_9bitvectorERSF_ @ 573
;	long ibis::part::doCompare0<short, std::binder1st<std::less<short> >, std::binder2nd<std::less_equal<short> > >(array_t<short> const&, std::binder1st<std::less<short> >, std::binder2nd<std::less_equal<short> >, ibis::bitvector const&, ibis::bitvector&) const
	_ZNK4ibis4part10doCompare0IsSt9binder1stISt4lessIsEESt9binder2ndISt10less_equalIsEEEElRK7array_tIT_ET0_T1_RKNS_9bitvectorERSH_ @ 574
;	long ibis::part::doCompare0<short, std::binder1st<std::less<short> >, std::binder2nd<std::greater_equal<short> > >(array_t<short> const&, std::binder1st<std::less<short> >, std::binder2nd<std::greater_equal<short> >, ibis::bitvector const&, ibis::bitvector&) const
	_ZNK4ibis4part10doCompare0IsSt9binder1stISt4lessIsEESt9binder2ndISt13greater_equalIsEEEElRK7array_tIT_ET0_T1_RKNS_9bitvectorERSH_ @ 575
;	long ibis::part::doCompare0<short, std::binder1st<std::less<short> >, std::binder2nd<std::greater<short> > >(array_t<short> const&, std::binder1st<std::less<short> >, std::binder2nd<std::greater<short> >, ibis::bitvector const&, ibis::bitvector&) const
	_ZNK4ibis4part10doCompare0IsSt9binder1stISt4lessIsEESt9binder2ndISt7greaterIsEEEElRK7array_tIT_ET0_T1_RKNS_9bitvectorERSH_ @ 576
;	long ibis::part::doCompare0<short, std::binder1st<std::less<short> >, std::binder2nd<std::equal_to<short> > >(array_t<short> const&, std::binder1st<std::less<short> >, std::binder2nd<std::equal_to<short> >, ibis::bitvector const&, ibis::bitvector&) const
	_ZNK4ibis4part10doCompare0IsSt9binder1stISt4lessIsEESt9binder2ndISt8equal_toIsEEEElRK7array_tIT_ET0_T1_RKNS_9bitvectorERSH_ @ 577
;	long ibis::part::doCompare0<short, std::binder1st<std::greater<short> > >(array_t<short> const&, std::binder1st<std::greater<short> >, ibis::bitvector const&, ibis::bitvector&) const
	_ZNK4ibis4part10doCompare0IsSt9binder1stISt7greaterIsEEEElRK7array_tIT_ET0_RKNS_9bitvectorERSC_ @ 578
;	long ibis::part::doCompare0<short, std::binder1st<std::greater<short> >, std::binder2nd<std::greater<short> > >(array_t<short> const&, std::binder1st<std::greater<short> >, std::binder2nd<std::greater<short> >, ibis::bitvector const&, ibis::bitvector&) const
	_ZNK4ibis4part10doCompare0IsSt9binder1stISt7greaterIsEESt9binder2ndIS4_EEElRK7array_tIT_ET0_T1_RKNS_9bitvectorERSF_ @ 579
;	long ibis::part::doCompare0<short, std::binder1st<std::greater<short> >, std::binder2nd<std::less_equal<short> > >(array_t<short> const&, std::binder1st<std::greater<short> >, std::binder2nd<std::less_equal<short> >, ibis::bitvector const&, ibis::bitvector&) const
	_ZNK4ibis4part10doCompare0IsSt9binder1stISt7greaterIsEESt9binder2ndISt10less_equalIsEEEElRK7array_tIT_ET0_T1_RKNS_9bitvectorERSH_ @ 580
;	long ibis::part::doCompare0<short, std::binder1st<std::greater<short> >, std::binder2nd<std::greater_equal<short> > >(array_t<short> const&, std::binder1st<std::greater<short> >, std::binder2nd<std::greater_equal<short> >, ibis::bitvector const&, ibis::bitvector&) const
	_ZNK4ibis4part10doCompare0IsSt9binder1stISt7greaterIsEESt9binder2ndISt13greater_equalIsEEEElRK7array_tIT_ET0_T1_RKNS_9bitvectorERSH_ @ 581
;	long ibis::part::doCompare0<short, std::binder1st<std::greater<short> >, std::binder2nd<std::less<short> > >(array_t<short> const&, std::binder1st<std::greater<short> >, std::binder2nd<std::less<short> >, ibis::bitvector const&, ibis::bitvector&) const
	_ZNK4ibis4part10doCompare0IsSt9binder1stISt7greaterIsEESt9binder2ndISt4lessIsEEEElRK7array_tIT_ET0_T1_RKNS_9bitvectorERSH_ @ 582
;	long ibis::part::doCompare0<short, std::binder1st<std::greater<short> >, std::binder2nd<std::equal_to<short> > >(array_t<short> const&, std::binder1st<std::greater<short> >, std::binder2nd<std::equal_to<short> >, ibis::bitvector const&, ibis::bitvector&) const
	_ZNK4ibis4part10doCompare0IsSt9binder1stISt7greaterIsEESt9binder2ndISt8equal_toIsEEEElRK7array_tIT_ET0_T1_RKNS_9bitvectorERSH_ @ 583
;	long ibis::part::doCompare0<short, std::binder1st<std::equal_to<short> > >(array_t<short> const&, std::binder1st<std::equal_to<short> >, ibis::bitvector const&, ibis::bitvector&) const
	_ZNK4ibis4part10doCompare0IsSt9binder1stISt8equal_toIsEEEElRK7array_tIT_ET0_RKNS_9bitvectorERSC_ @ 584
;	long ibis::part::doCompare0<short, std::binder1st<std::equal_to<short> >, std::binder2nd<std::equal_to<short> > >(array_t<short> const&, std::binder1st<std::equal_to<short> >, std::binder2nd<std::equal_to<short> >, ibis::bitvector const&, ibis::bitvector&) const
	_ZNK4ibis4part10doCompare0IsSt9binder1stISt8equal_toIsEESt9binder2ndIS4_EEElRK7array_tIT_ET0_T1_RKNS_9bitvectorERSF_ @ 585
;	long ibis::part::doCompare0<short, std::binder1st<std::equal_to<short> >, std::binder2nd<std::less_equal<short> > >(array_t<short> const&, std::binder1st<std::equal_to<short> >, std::binder2nd<std::less_equal<short> >, ibis::bitvector const&, ibis::bitvector&) const
	_ZNK4ibis4part10doCompare0IsSt9binder1stISt8equal_toIsEESt9binder2ndISt10less_equalIsEEEElRK7array_tIT_ET0_T1_RKNS_9bitvectorERSH_ @ 586
;	long ibis::part::doCompare0<short, std::binder1st<std::equal_to<short> >, std::binder2nd<std::greater_equal<short> > >(array_t<short> const&, std::binder1st<std::equal_to<short> >, std::binder2nd<std::greater_equal<short> >, ibis::bitvector const&, ibis::bitvector&) const
	_ZNK4ibis4part10doCompare0IsSt9binder1stISt8equal_toIsEESt9binder2ndISt13greater_equalIsEEEElRK7array_tIT_ET0_T1_RKNS_9bitvectorERSH_ @ 587
;	long ibis::part::doCompare0<short, std::binder1st<std::equal_to<short> >, std::binder2nd<std::less<short> > >(array_t<short> const&, std::binder1st<std::equal_to<short> >, std::binder2nd<std::less<short> >, ibis::bitvector const&, ibis::bitvector&) const
	_ZNK4ibis4part10doCompare0IsSt9binder1stISt8equal_toIsEESt9binder2ndISt4lessIsEEEElRK7array_tIT_ET0_T1_RKNS_9bitvectorERSH_ @ 588
;	long ibis::part::doCompare0<short, std::binder1st<std::equal_to<short> >, std::binder2nd<std::greater<short> > >(array_t<short> const&, std::binder1st<std::equal_to<short> >, std::binder2nd<std::greater<short> >, ibis::bitvector const&, ibis::bitvector&) const
	_ZNK4ibis4part10doCompare0IsSt9binder1stISt8equal_toIsEESt9binder2ndISt7greaterIsEEEElRK7array_tIT_ET0_T1_RKNS_9bitvectorERSH_ @ 589
;	long ibis::part::doCompare0<short, std::binder2nd<std::less_equal<short> > >(array_t<short> const&, std::binder2nd<std::less_equal<short> >, ibis::bitvector const&, ibis::bitvector&) const
	_ZNK4ibis4part10doCompare0IsSt9binder2ndISt10less_equalIsEEEElRK7array_tIT_ET0_RKNS_9bitvectorERSC_ @ 590
;	long ibis::part::doCompare0<short, std::binder2nd<std::greater_equal<short> > >(array_t<short> const&, std::binder2nd<std::greater_equal<short> >, ibis::bitvector const&, ibis::bitvector&) const
	_ZNK4ibis4part10doCompare0IsSt9binder2ndISt13greater_equalIsEEEElRK7array_tIT_ET0_RKNS_9bitvectorERSC_ @ 591
;	long ibis::part::doCompare0<short, std::binder2nd<std::less<short> > >(array_t<short> const&, std::binder2nd<std::less<short> >, ibis::bitvector const&, ibis::bitvector&) const
	_ZNK4ibis4part10doCompare0IsSt9binder2ndISt4lessIsEEEElRK7array_tIT_ET0_RKNS_9bitvectorERSC_ @ 592
;	long ibis::part::doCompare0<short, std::binder2nd<std::greater<short> > >(array_t<short> const&, std::binder2nd<std::greater<short> >, ibis::bitvector const&, ibis::bitvector&) const
	_ZNK4ibis4part10doCompare0IsSt9binder2ndISt7greaterIsEEEElRK7array_tIT_ET0_RKNS_9bitvectorERSC_ @ 593
;	long ibis::part::doCompare0<short, std::binder2nd<std::equal_to<short> > >(array_t<short> const&, std::binder2nd<std::equal_to<short> >, ibis::bitvector const&, ibis::bitvector&) const
	_ZNK4ibis4part10doCompare0IsSt9binder2ndISt8equal_toIsEEEElRK7array_tIT_ET0_RKNS_9bitvectorERSC_ @ 594
;	long ibis::part::doCompare0<unsigned short, std::binder1st<std::less_equal<unsigned short> > >(array_t<unsigned short> const&, std::binder1st<std::less_equal<unsigned short> >, ibis::bitvector const&, ibis::bitvector&) const
	_ZNK4ibis4part10doCompare0ItSt9binder1stISt10less_equalItEEEElRK7array_tIT_ET0_RKNS_9bitvectorERSC_ @ 595
;	long ibis::part::doCompare0<unsigned short, std::binder1st<std::less_equal<unsigned short> >, std::binder2nd<std::less_equal<unsigned short> > >(array_t<unsigned short> const&, std::binder1st<std::less_equal<unsigned short> >, std::binder2nd<std::less_equal<unsigned short> >, ibis::bitvector const&, ibis::bitvector&) const
	_ZNK4ibis4part10doCompare0ItSt9binder1stISt10less_equalItEESt9binder2ndIS4_EEElRK7array_tIT_ET0_T1_RKNS_9bitvectorERSF_ @ 596
;	long ibis::part::doCompare0<unsigned short, std::binder1st<std::less_equal<unsigned short> >, std::binder2nd<std::greater_equal<unsigned short> > >(array_t<unsigned short> const&, std::binder1st<std::less_equal<unsigned short> >, std::binder2nd<std::greater_equal<unsigned short> >, ibis::bitvector const&, ibis::bitvector&) const
	_ZNK4ibis4part10doCompare0ItSt9binder1stISt10less_equalItEESt9binder2ndISt13greater_equalItEEEElRK7array_tIT_ET0_T1_RKNS_9bitvectorERSH_ @ 597
;	long ibis::part::doCompare0<unsigned short, std::binder1st<std::less_equal<unsigned short> >, std::binder2nd<std::less<unsigned short> > >(array_t<unsigned short> const&, std::binder1st<std::less_equal<unsigned short> >, std::binder2nd<std::less<unsigned short> >, ibis::bitvector const&, ibis::bitvector&) const
	_ZNK4ibis4part10doCompare0ItSt9binder1stISt10less_equalItEESt9binder2ndISt4lessItEEEElRK7array_tIT_ET0_T1_RKNS_9bitvectorERSH_ @ 598
;	long ibis::part::doCompare0<unsigned short, std::binder1st<std::less_equal<unsigned short> >, std::binder2nd<std::greater<unsigned short> > >(array_t<unsigned short> const&, std::binder1st<std::less_equal<unsigned short> >, std::binder2nd<std::greater<unsigned short> >, ibis::bitvector const&, ibis::bitvector&) const
	_ZNK4ibis4part10doCompare0ItSt9binder1stISt10less_equalItEESt9binder2ndISt7greaterItEEEElRK7array_tIT_ET0_T1_RKNS_9bitvectorERSH_ @ 599
;	long ibis::part::doCompare0<unsigned short, std::binder1st<std::less_equal<unsigned short> >, std::binder2nd<std::equal_to<unsigned short> > >(array_t<unsigned short> const&, std::binder1st<std::less_equal<unsigned short> >, std::binder2nd<std::equal_to<unsigned short> >, ibis::bitvector const&, ibis::bitvector&) const
	_ZNK4ibis4part10doCompare0ItSt9binder1stISt10less_equalItEESt9binder2ndISt8equal_toItEEEElRK7array_tIT_ET0_T1_RKNS_9bitvectorERSH_ @ 600
;	long ibis::part::doCompare0<unsigned short, std::binder1st<std::greater_equal<unsigned short> > >(array_t<unsigned short> const&, std::binder1st<std::greater_equal<unsigned short> >, ibis::bitvector const&, ibis::bitvector&) const
	_ZNK4ibis4part10doCompare0ItSt9binder1stISt13greater_equalItEEEElRK7array_tIT_ET0_RKNS_9bitvectorERSC_ @ 601
;	long ibis::part::doCompare0<unsigned short, std::binder1st<std::greater_equal<unsigned short> >, std::binder2nd<std::greater_equal<unsigned short> > >(array_t<unsigned short> const&, std::binder1st<std::greater_equal<unsigned short> >, std::binder2nd<std::greater_equal<unsigned short> >, ibis::bitvector const&, ibis::bitvector&) const
	_ZNK4ibis4part10doCompare0ItSt9binder1stISt13greater_equalItEESt9binder2ndIS4_EEElRK7array_tIT_ET0_T1_RKNS_9bitvectorERSF_ @ 602
;	long ibis::part::doCompare0<unsigned short, std::binder1st<std::greater_equal<unsigned short> >, std::binder2nd<std::less_equal<unsigned short> > >(array_t<unsigned short> const&, std::binder1st<std::greater_equal<unsigned short> >, std::binder2nd<std::less_equal<unsigned short> >, ibis::bitvector const&, ibis::bitvector&) const
	_ZNK4ibis4part10doCompare0ItSt9binder1stISt13greater_equalItEESt9binder2ndISt10less_equalItEEEElRK7array_tIT_ET0_T1_RKNS_9bitvectorERSH_ @ 603
;	long ibis::part::doCompare0<unsigned short, std::binder1st<std::greater_equal<unsigned short> >, std::binder2nd<std::less<unsigned short> > >(array_t<unsigned short> const&, std::binder1st<std::greater_equal<unsigned short> >, std::binder2nd<std::less<unsigned short> >, ibis::bitvector const&, ibis::bitvector&) const
	_ZNK4ibis4part10doCompare0ItSt9binder1stISt13greater_equalItEESt9binder2ndISt4lessItEEEElRK7array_tIT_ET0_T1_RKNS_9bitvectorERSH_ @ 604
;	long ibis::part::doCompare0<unsigned short, std::binder1st<std::greater_equal<unsigned short> >, std::binder2nd<std::greater<unsigned short> > >(array_t<unsigned short> const&, std::binder1st<std::greater_equal<unsigned short> >, std::binder2nd<std::greater<unsigned short> >, ibis::bitvector const&, ibis::bitvector&) const
	_ZNK4ibis4part10doCompare0ItSt9binder1stISt13greater_equalItEESt9binder2ndISt7greaterItEEEElRK7array_tIT_ET0_T1_RKNS_9bitvectorERSH_ @ 605
;	long ibis::part::doCompare0<unsigned short, std::binder1st<std::greater_equal<unsigned short> >, std::binder2nd<std::equal_to<unsigned short> > >(array_t<unsigned short> const&, std::binder1st<std::greater_equal<unsigned short> >, std::binder2nd<std::equal_to<unsigned short> >, ibis::bitvector const&, ibis::bitvector&) const
	_ZNK4ibis4part10doCompare0ItSt9binder1stISt13greater_equalItEESt9binder2ndISt8equal_toItEEEElRK7array_tIT_ET0_T1_RKNS_9bitvectorERSH_ @ 606
;	long ibis::part::doCompare0<unsigned short, std::binder1st<std::less<unsigned short> > >(array_t<unsigned short> const&, std::binder1st<std::less<unsigned short> >, ibis::bitvector const&, ibis::bitvector&) const
	_ZNK4ibis4part10doCompare0ItSt9binder1stISt4lessItEEEElRK7array_tIT_ET0_RKNS_9bitvectorERSC_ @ 607
;	long ibis::part::doCompare0<unsigned short, std::binder1st<std::less<unsigned short> >, std::binder2nd<std::less<unsigned short> > >(array_t<unsigned short> const&, std::binder1st<std::less<unsigned short> >, std::binder2nd<std::less<unsigned short> >, ibis::bitvector const&, ibis::bitvector&) const
	_ZNK4ibis4part10doCompare0ItSt9binder1stISt4lessItEESt9binder2ndIS4_EEElRK7array_tIT_ET0_T1_RKNS_9bitvectorERSF_ @ 608
;	long ibis::part::doCompare0<unsigned short, std::binder1st<std::less<unsigned short> >, std::binder2nd<std::less_equal<unsigned short> > >(array_t<unsigned short> const&, std::binder1st<std::less<unsigned short> >, std::binder2nd<std::less_equal<unsigned short> >, ibis::bitvector const&, ibis::bitvector&) const
	_ZNK4ibis4part10doCompare0ItSt9binder1stISt4lessItEESt9binder2ndISt10less_equalItEEEElRK7array_tIT_ET0_T1_RKNS_9bitvectorERSH_ @ 609
;	long ibis::part::doCompare0<unsigned short, std::binder1st<std::less<unsigned short> >, std::binder2nd<std::greater_equal<unsigned short> > >(array_t<unsigned short> const&, std::binder1st<std::less<unsigned short> >, std::binder2nd<std::greater_equal<unsigned short> >, ibis::bitvector const&, ibis::bitvector&) const
	_ZNK4ibis4part10doCompare0ItSt9binder1stISt4lessItEESt9binder2ndISt13greater_equalItEEEElRK7array_tIT_ET0_T1_RKNS_9bitvectorERSH_ @ 610
;	long ibis::part::doCompare0<unsigned short, std::binder1st<std::less<unsigned short> >, std::binder2nd<std::greater<unsigned short> > >(array_t<unsigned short> const&, std::binder1st<std::less<unsigned short> >, std::binder2nd<std::greater<unsigned short> >, ibis::bitvector const&, ibis::bitvector&) const
	_ZNK4ibis4part10doCompare0ItSt9binder1stISt4lessItEESt9binder2ndISt7greaterItEEEElRK7array_tIT_ET0_T1_RKNS_9bitvectorERSH_ @ 611
;	long ibis::part::doCompare0<unsigned short, std::binder1st<std::less<unsigned short> >, std::binder2nd<std::equal_to<unsigned short> > >(array_t<unsigned short> const&, std::binder1st<std::less<unsigned short> >, std::binder2nd<std::equal_to<unsigned short> >, ibis::bitvector const&, ibis::bitvector&) const
	_ZNK4ibis4part10doCompare0ItSt9binder1stISt4lessItEESt9binder2ndISt8equal_toItEEEElRK7array_tIT_ET0_T1_RKNS_9bitvectorERSH_ @ 612
;	long ibis::part::doCompare0<unsigned short, std::binder1st<std::greater<unsigned short> > >(array_t<unsigned short> const&, std::binder1st<std::greater<unsigned short> >, ibis::bitvector const&, ibis::bitvector&) const
	_ZNK4ibis4part10doCompare0ItSt9binder1stISt7greaterItEEEElRK7array_tIT_ET0_RKNS_9bitvectorERSC_ @ 613
;	long ibis::part::doCompare0<unsigned short, std::binder1st<std::greater<unsigned short> >, std::binder2nd<std::greater<unsigned short> > >(array_t<unsigned short> const&, std::binder1st<std::greater<unsigned short> >, std::binder2nd<std::greater<unsigned short> >, ibis::bitvector const&, ibis::bitvector&) const
	_ZNK4ibis4part10doCompare0ItSt9binder1stISt7greaterItEESt9binder2ndIS4_EEElRK7array_tIT_ET0_T1_RKNS_9bitvectorERSF_ @ 614
;	long ibis::part::doCompare0<unsigned short, std::binder1st<std::greater<unsigned short> >, std::binder2nd<std::less_equal<unsigned short> > >(array_t<unsigned short> const&, std::binder1st<std::greater<unsigned short> >, std::binder2nd<std::less_equal<unsigned short> >, ibis::bitvector const&, ibis::bitvector&) const
	_ZNK4ibis4part10doCompare0ItSt9binder1stISt7greaterItEESt9binder2ndISt10less_equalItEEEElRK7array_tIT_ET0_T1_RKNS_9bitvectorERSH_ @ 615
;	long ibis::part::doCompare0<unsigned short, std::binder1st<std::greater<unsigned short> >, std::binder2nd<std::greater_equal<unsigned short> > >(array_t<unsigned short> const&, std::binder1st<std::greater<unsigned short> >, std::binder2nd<std::greater_equal<unsigned short> >, ibis::bitvector const&, ibis::bitvector&) const
	_ZNK4ibis4part10doCompare0ItSt9binder1stISt7greaterItEESt9binder2ndISt13greater_equalItEEEElRK7array_tIT_ET0_T1_RKNS_9bitvectorERSH_ @ 616
;	long ibis::part::doCompare0<unsigned short, std::binder1st<std::greater<unsigned short> >, std::binder2nd<std::less<unsigned short> > >(array_t<unsigned short> const&, std::binder1st<std::greater<unsigned short> >, std::binder2nd<std::less<unsigned short> >, ibis::bitvector const&, ibis::bitvector&) const
	_ZNK4ibis4part10doCompare0ItSt9binder1stISt7greaterItEESt9binder2ndISt4lessItEEEElRK7array_tIT_ET0_T1_RKNS_9bitvectorERSH_ @ 617
;	long ibis::part::doCompare0<unsigned short, std::binder1st<std::greater<unsigned short> >, std::binder2nd<std::equal_to<unsigned short> > >(array_t<unsigned short> const&, std::binder1st<std::greater<unsigned short> >, std::binder2nd<std::equal_to<unsigned short> >, ibis::bitvector const&, ibis::bitvector&) const
	_ZNK4ibis4part10doCompare0ItSt9binder1stISt7greaterItEESt9binder2ndISt8equal_toItEEEElRK7array_tIT_ET0_T1_RKNS_9bitvectorERSH_ @ 618
;	long ibis::part::doCompare0<unsigned short, std::binder1st<std::equal_to<unsigned short> > >(array_t<unsigned short> const&, std::binder1st<std::equal_to<unsigned short> >, ibis::bitvector const&, ibis::bitvector&) const
	_ZNK4ibis4part10doCompare0ItSt9binder1stISt8equal_toItEEEElRK7array_tIT_ET0_RKNS_9bitvectorERSC_ @ 619
;	long ibis::part::doCompare0<unsigned short, std::binder1st<std::equal_to<unsigned short> >, std::binder2nd<std::equal_to<unsigned short> > >(array_t<unsigned short> const&, std::binder1st<std::equal_to<unsigned short> >, std::binder2nd<std::equal_to<unsigned short> >, ibis::bitvector const&, ibis::bitvector&) const
	_ZNK4ibis4part10doCompare0ItSt9binder1stISt8equal_toItEESt9binder2ndIS4_EEElRK7array_tIT_ET0_T1_RKNS_9bitvectorERSF_ @ 620
;	long ibis::part::doCompare0<unsigned short, std::binder1st<std::equal_to<unsigned short> >, std::binder2nd<std::less_equal<unsigned short> > >(array_t<unsigned short> const&, std::binder1st<std::equal_to<unsigned short> >, std::binder2nd<std::less_equal<unsigned short> >, ibis::bitvector const&, ibis::bitvector&) const
	_ZNK4ibis4part10doCompare0ItSt9binder1stISt8equal_toItEESt9binder2ndISt10less_equalItEEEElRK7array_tIT_ET0_T1_RKNS_9bitvectorERSH_ @ 621
;	long ibis::part::doCompare0<unsigned short, std::binder1st<std::equal_to<unsigned short> >, std::binder2nd<std::greater_equal<unsigned short> > >(array_t<unsigned short> const&, std::binder1st<std::equal_to<unsigned short> >, std::binder2nd<std::greater_equal<unsigned short> >, ibis::bitvector const&, ibis::bitvector&) const
	_ZNK4ibis4part10doCompare0ItSt9binder1stISt8equal_toItEESt9binder2ndISt13greater_equalItEEEElRK7array_tIT_ET0_T1_RKNS_9bitvectorERSH_ @ 622
;	long ibis::part::doCompare0<unsigned short, std::binder1st<std::equal_to<unsigned short> >, std::binder2nd<std::less<unsigned short> > >(array_t<unsigned short> const&, std::binder1st<std::equal_to<unsigned short> >, std::binder2nd<std::less<unsigned short> >, ibis::bitvector const&, ibis::bitvector&) const
	_ZNK4ibis4part10doCompare0ItSt9binder1stISt8equal_toItEESt9binder2ndISt4lessItEEEElRK7array_tIT_ET0_T1_RKNS_9bitvectorERSH_ @ 623
;	long ibis::part::doCompare0<unsigned short, std::binder1st<std::equal_to<unsigned short> >, std::binder2nd<std::greater<unsigned short> > >(array_t<unsigned short> const&, std::binder1st<std::equal_to<unsigned short> >, std::binder2nd<std::greater<unsigned short> >, ibis::bitvector const&, ibis::bitvector&) const
	_ZNK4ibis4part10doCompare0ItSt9binder1stISt8equal_toItEESt9binder2ndISt7greaterItEEEElRK7array_tIT_ET0_T1_RKNS_9bitvectorERSH_ @ 624
;	long ibis::part::doCompare0<unsigned short, std::binder2nd<std::less_equal<unsigned short> > >(array_t<unsigned short> const&, std::binder2nd<std::less_equal<unsigned short> >, ibis::bitvector const&, ibis::bitvector&) const
	_ZNK4ibis4part10doCompare0ItSt9binder2ndISt10less_equalItEEEElRK7array_tIT_ET0_RKNS_9bitvectorERSC_ @ 625
;	long ibis::part::doCompare0<unsigned short, std::binder2nd<std::greater_equal<unsigned short> > >(array_t<unsigned short> const&, std::binder2nd<std::greater_equal<unsigned short> >, ibis::bitvector const&, ibis::bitvector&) const
	_ZNK4ibis4part10doCompare0ItSt9binder2ndISt13greater_equalItEEEElRK7array_tIT_ET0_RKNS_9bitvectorERSC_ @ 626
;	long ibis::part::doCompare0<unsigned short, std::binder2nd<std::less<unsigned short> > >(array_t<unsigned short> const&, std::binder2nd<std::less<unsigned short> >, ibis::bitvector const&, ibis::bitvector&) const
	_ZNK4ibis4part10doCompare0ItSt9binder2ndISt4lessItEEEElRK7array_tIT_ET0_RKNS_9bitvectorERSC_ @ 627
;	long ibis::part::doCompare0<unsigned short, std::binder2nd<std::greater<unsigned short> > >(array_t<unsigned short> const&, std::binder2nd<std::greater<unsigned short> >, ibis::bitvector const&, ibis::bitvector&) const
	_ZNK4ibis4part10doCompare0ItSt9binder2ndISt7greaterItEEEElRK7array_tIT_ET0_RKNS_9bitvectorERSC_ @ 628
;	long ibis::part::doCompare0<unsigned short, std::binder2nd<std::equal_to<unsigned short> > >(array_t<unsigned short> const&, std::binder2nd<std::equal_to<unsigned short> >, ibis::bitvector const&, ibis::bitvector&) const
	_ZNK4ibis4part10doCompare0ItSt9binder2ndISt8equal_toItEEEElRK7array_tIT_ET0_RKNS_9bitvectorERSC_ @ 629
;	long ibis::part::doCompare0<long long, std::binder1st<std::less_equal<long long> > >(array_t<long long> const&, std::binder1st<std::less_equal<long long> >, ibis::bitvector const&, ibis::bitvector&) const
	_ZNK4ibis4part10doCompare0IxSt9binder1stISt10less_equalIxEEEElRK7array_tIT_ET0_RKNS_9bitvectorERSC_ @ 630
;	long ibis::part::doCompare0<long long, std::binder1st<std::less_equal<long long> >, std::binder2nd<std::less_equal<long long> > >(array_t<long long> const&, std::binder1st<std::less_equal<long long> >, std::binder2nd<std::less_equal<long long> >, ibis::bitvector const&, ibis::bitvector&) const
	_ZNK4ibis4part10doCompare0IxSt9binder1stISt10less_equalIxEESt9binder2ndIS4_EEElRK7array_tIT_ET0_T1_RKNS_9bitvectorERSF_ @ 631
;	long ibis::part::doCompare0<long long, std::binder1st<std::less_equal<long long> >, std::binder2nd<std::greater_equal<long long> > >(array_t<long long> const&, std::binder1st<std::less_equal<long long> >, std::binder2nd<std::greater_equal<long long> >, ibis::bitvector const&, ibis::bitvector&) const
	_ZNK4ibis4part10doCompare0IxSt9binder1stISt10less_equalIxEESt9binder2ndISt13greater_equalIxEEEElRK7array_tIT_ET0_T1_RKNS_9bitvectorERSH_ @ 632
;	long ibis::part::doCompare0<long long, std::binder1st<std::less_equal<long long> >, std::binder2nd<std::less<long long> > >(array_t<long long> const&, std::binder1st<std::less_equal<long long> >, std::binder2nd<std::less<long long> >, ibis::bitvector const&, ibis::bitvector&) const
	_ZNK4ibis4part10doCompare0IxSt9binder1stISt10less_equalIxEESt9binder2ndISt4lessIxEEEElRK7array_tIT_ET0_T1_RKNS_9bitvectorERSH_ @ 633
;	long ibis::part::doCompare0<long long, std::binder1st<std::less_equal<long long> >, std::binder2nd<std::greater<long long> > >(array_t<long long> const&, std::binder1st<std::less_equal<long long> >, std::binder2nd<std::greater<long long> >, ibis::bitvector const&, ibis::bitvector&) const
	_ZNK4ibis4part10doCompare0IxSt9binder1stISt10less_equalIxEESt9binder2ndISt7greaterIxEEEElRK7array_tIT_ET0_T1_RKNS_9bitvectorERSH_ @ 634
;	long ibis::part::doCompare0<long long, std::binder1st<std::less_equal<long long> >, std::binder2nd<std::equal_to<long long> > >(array_t<long long> const&, std::binder1st<std::less_equal<long long> >, std::binder2nd<std::equal_to<long long> >, ibis::bitvector const&, ibis::bitvector&) const
	_ZNK4ibis4part10doCompare0IxSt9binder1stISt10less_equalIxEESt9binder2ndISt8equal_toIxEEEElRK7array_tIT_ET0_T1_RKNS_9bitvectorERSH_ @ 635
;	long ibis::part::doCompare0<long long, std::binder1st<std::greater_equal<long long> > >(array_t<long long> const&, std::binder1st<std::greater_equal<long long> >, ibis::bitvector const&, ibis::bitvector&) const
	_ZNK4ibis4part10doCompare0IxSt9binder1stISt13greater_equalIxEEEElRK7array_tIT_ET0_RKNS_9bitvectorERSC_ @ 636
;	long ibis::part::doCompare0<long long, std::binder1st<std::greater_equal<long long> >, std::binder2nd<std::greater_equal<long long> > >(array_t<long long> const&, std::binder1st<std::greater_equal<long long> >, std::binder2nd<std::greater_equal<long long> >, ibis::bitvector const&, ibis::bitvector&) const
	_ZNK4ibis4part10doCompare0IxSt9binder1stISt13greater_equalIxEESt9binder2ndIS4_EEElRK7array_tIT_ET0_T1_RKNS_9bitvectorERSF_ @ 637
;	long ibis::part::doCompare0<long long, std::binder1st<std::greater_equal<long long> >, std::binder2nd<std::less_equal<long long> > >(array_t<long long> const&, std::binder1st<std::greater_equal<long long> >, std::binder2nd<std::less_equal<long long> >, ibis::bitvector const&, ibis::bitvector&) const
	_ZNK4ibis4part10doCompare0IxSt9binder1stISt13greater_equalIxEESt9binder2ndISt10less_equalIxEEEElRK7array_tIT_ET0_T1_RKNS_9bitvectorERSH_ @ 638
;	long ibis::part::doCompare0<long long, std::binder1st<std::greater_equal<long long> >, std::binder2nd<std::less<long long> > >(array_t<long long> const&, std::binder1st<std::greater_equal<long long> >, std::binder2nd<std::less<long long> >, ibis::bitvector const&, ibis::bitvector&) const
	_ZNK4ibis4part10doCompare0IxSt9binder1stISt13greater_equalIxEESt9binder2ndISt4lessIxEEEElRK7array_tIT_ET0_T1_RKNS_9bitvectorERSH_ @ 639
;	long ibis::part::doCompare0<long long, std::binder1st<std::greater_equal<long long> >, std::binder2nd<std::greater<long long> > >(array_t<long long> const&, std::binder1st<std::greater_equal<long long> >, std::binder2nd<std::greater<long long> >, ibis::bitvector const&, ibis::bitvector&) const
	_ZNK4ibis4part10doCompare0IxSt9binder1stISt13greater_equalIxEESt9binder2ndISt7greaterIxEEEElRK7array_tIT_ET0_T1_RKNS_9bitvectorERSH_ @ 640
;	long ibis::part::doCompare0<long long, std::binder1st<std::greater_equal<long long> >, std::binder2nd<std::equal_to<long long> > >(array_t<long long> const&, std::binder1st<std::greater_equal<long long> >, std::binder2nd<std::equal_to<long long> >, ibis::bitvector const&, ibis::bitvector&) const
	_ZNK4ibis4part10doCompare0IxSt9binder1stISt13greater_equalIxEESt9binder2ndISt8equal_toIxEEEElRK7array_tIT_ET0_T1_RKNS_9bitvectorERSH_ @ 641
;	long ibis::part::doCompare0<long long, std::binder1st<std::less<long long> > >(array_t<long long> const&, std::binder1st<std::less<long long> >, ibis::bitvector const&, ibis::bitvector&) const
	_ZNK4ibis4part10doCompare0IxSt9binder1stISt4lessIxEEEElRK7array_tIT_ET0_RKNS_9bitvectorERSC_ @ 642
;	long ibis::part::doCompare0<long long, std::binder1st<std::less<long long> >, std::binder2nd<std::less<long long> > >(array_t<long long> const&, std::binder1st<std::less<long long> >, std::binder2nd<std::less<long long> >, ibis::bitvector const&, ibis::bitvector&) const
	_ZNK4ibis4part10doCompare0IxSt9binder1stISt4lessIxEESt9binder2ndIS4_EEElRK7array_tIT_ET0_T1_RKNS_9bitvectorERSF_ @ 643
;	long ibis::part::doCompare0<long long, std::binder1st<std::less<long long> >, std::binder2nd<std::less_equal<long long> > >(array_t<long long> const&, std::binder1st<std::less<long long> >, std::binder2nd<std::less_equal<long long> >, ibis::bitvector const&, ibis::bitvector&) const
	_ZNK4ibis4part10doCompare0IxSt9binder1stISt4lessIxEESt9binder2ndISt10less_equalIxEEEElRK7array_tIT_ET0_T1_RKNS_9bitvectorERSH_ @ 644
;	long ibis::part::doCompare0<long long, std::binder1st<std::less<long long> >, std::binder2nd<std::greater_equal<long long> > >(array_t<long long> const&, std::binder1st<std::less<long long> >, std::binder2nd<std::greater_equal<long long> >, ibis::bitvector const&, ibis::bitvector&) const
	_ZNK4ibis4part10doCompare0IxSt9binder1stISt4lessIxEESt9binder2ndISt13greater_equalIxEEEElRK7array_tIT_ET0_T1_RKNS_9bitvectorERSH_ @ 645
;	long ibis::part::doCompare0<long long, std::binder1st<std::less<long long> >, std::binder2nd<std::greater<long long> > >(array_t<long long> const&, std::binder1st<std::less<long long> >, std::binder2nd<std::greater<long long> >, ibis::bitvector const&, ibis::bitvector&) const
	_ZNK4ibis4part10doCompare0IxSt9binder1stISt4lessIxEESt9binder2ndISt7greaterIxEEEElRK7array_tIT_ET0_T1_RKNS_9bitvectorERSH_ @ 646
;	long ibis::part::doCompare0<long long, std::binder1st<std::less<long long> >, std::binder2nd<std::equal_to<long long> > >(array_t<long long> const&, std::binder1st<std::less<long long> >, std::binder2nd<std::equal_to<long long> >, ibis::bitvector const&, ibis::bitvector&) const
	_ZNK4ibis4part10doCompare0IxSt9binder1stISt4lessIxEESt9binder2ndISt8equal_toIxEEEElRK7array_tIT_ET0_T1_RKNS_9bitvectorERSH_ @ 647
;	long ibis::part::doCompare0<long long, std::binder1st<std::greater<long long> > >(array_t<long long> const&, std::binder1st<std::greater<long long> >, ibis::bitvector const&, ibis::bitvector&) const
	_ZNK4ibis4part10doCompare0IxSt9binder1stISt7greaterIxEEEElRK7array_tIT_ET0_RKNS_9bitvectorERSC_ @ 648
;	long ibis::part::doCompare0<long long, std::binder1st<std::greater<long long> >, std::binder2nd<std::greater<long long> > >(array_t<long long> const&, std::binder1st<std::greater<long long> >, std::binder2nd<std::greater<long long> >, ibis::bitvector const&, ibis::bitvector&) const
	_ZNK4ibis4part10doCompare0IxSt9binder1stISt7greaterIxEESt9binder2ndIS4_EEElRK7array_tIT_ET0_T1_RKNS_9bitvectorERSF_ @ 649
;	long ibis::part::doCompare0<long long, std::binder1st<std::greater<long long> >, std::binder2nd<std::less_equal<long long> > >(array_t<long long> const&, std::binder1st<std::greater<long long> >, std::binder2nd<std::less_equal<long long> >, ibis::bitvector const&, ibis::bitvector&) const
	_ZNK4ibis4part10doCompare0IxSt9binder1stISt7greaterIxEESt9binder2ndISt10less_equalIxEEEElRK7array_tIT_ET0_T1_RKNS_9bitvectorERSH_ @ 650
;	long ibis::part::doCompare0<long long, std::binder1st<std::greater<long long> >, std::binder2nd<std::greater_equal<long long> > >(array_t<long long> const&, std::binder1st<std::greater<long long> >, std::binder2nd<std::greater_equal<long long> >, ibis::bitvector const&, ibis::bitvector&) const
	_ZNK4ibis4part10doCompare0IxSt9binder1stISt7greaterIxEESt9binder2ndISt13greater_equalIxEEEElRK7array_tIT_ET0_T1_RKNS_9bitvectorERSH_ @ 651
;	long ibis::part::doCompare0<long long, std::binder1st<std::greater<long long> >, std::binder2nd<std::less<long long> > >(array_t<long long> const&, std::binder1st<std::greater<long long> >, std::binder2nd<std::less<long long> >, ibis::bitvector const&, ibis::bitvector&) const
	_ZNK4ibis4part10doCompare0IxSt9binder1stISt7greaterIxEESt9binder2ndISt4lessIxEEEElRK7array_tIT_ET0_T1_RKNS_9bitvectorERSH_ @ 652
;	long ibis::part::doCompare0<long long, std::binder1st<std::greater<long long> >, std::binder2nd<std::equal_to<long long> > >(array_t<long long> const&, std::binder1st<std::greater<long long> >, std::binder2nd<std::equal_to<long long> >, ibis::bitvector const&, ibis::bitvector&) const
	_ZNK4ibis4part10doCompare0IxSt9binder1stISt7greaterIxEESt9binder2ndISt8equal_toIxEEEElRK7array_tIT_ET0_T1_RKNS_9bitvectorERSH_ @ 653
;	long ibis::part::doCompare0<long long, std::binder1st<std::equal_to<long long> > >(array_t<long long> const&, std::binder1st<std::equal_to<long long> >, ibis::bitvector const&, ibis::bitvector&) const
	_ZNK4ibis4part10doCompare0IxSt9binder1stISt8equal_toIxEEEElRK7array_tIT_ET0_RKNS_9bitvectorERSC_ @ 654
;	long ibis::part::doCompare0<long long, std::binder1st<std::equal_to<long long> >, std::binder2nd<std::equal_to<long long> > >(array_t<long long> const&, std::binder1st<std::equal_to<long long> >, std::binder2nd<std::equal_to<long long> >, ibis::bitvector const&, ibis::bitvector&) const
	_ZNK4ibis4part10doCompare0IxSt9binder1stISt8equal_toIxEESt9binder2ndIS4_EEElRK7array_tIT_ET0_T1_RKNS_9bitvectorERSF_ @ 655
;	long ibis::part::doCompare0<long long, std::binder1st<std::equal_to<long long> >, std::binder2nd<std::less_equal<long long> > >(array_t<long long> const&, std::binder1st<std::equal_to<long long> >, std::binder2nd<std::less_equal<long long> >, ibis::bitvector const&, ibis::bitvector&) const
	_ZNK4ibis4part10doCompare0IxSt9binder1stISt8equal_toIxEESt9binder2ndISt10less_equalIxEEEElRK7array_tIT_ET0_T1_RKNS_9bitvectorERSH_ @ 656
;	long ibis::part::doCompare0<long long, std::binder1st<std::equal_to<long long> >, std::binder2nd<std::greater_equal<long long> > >(array_t<long long> const&, std::binder1st<std::equal_to<long long> >, std::binder2nd<std::greater_equal<long long> >, ibis::bitvector const&, ibis::bitvector&) const
	_ZNK4ibis4part10doCompare0IxSt9binder1stISt8equal_toIxEESt9binder2ndISt13greater_equalIxEEEElRK7array_tIT_ET0_T1_RKNS_9bitvectorERSH_ @ 657
;	long ibis::part::doCompare0<long long, std::binder1st<std::equal_to<long long> >, std::binder2nd<std::less<long long> > >(array_t<long long> const&, std::binder1st<std::equal_to<long long> >, std::binder2nd<std::less<long long> >, ibis::bitvector const&, ibis::bitvector&) const
	_ZNK4ibis4part10doCompare0IxSt9binder1stISt8equal_toIxEESt9binder2ndISt4lessIxEEEElRK7array_tIT_ET0_T1_RKNS_9bitvectorERSH_ @ 658
;	long ibis::part::doCompare0<long long, std::binder1st<std::equal_to<long long> >, std::binder2nd<std::greater<long long> > >(array_t<long long> const&, std::binder1st<std::equal_to<long long> >, std::binder2nd<std::greater<long long> >, ibis::bitvector const&, ibis::bitvector&) const
	_ZNK4ibis4part10doCompare0IxSt9binder1stISt8equal_toIxEESt9binder2ndISt7greaterIxEEEElRK7array_tIT_ET0_T1_RKNS_9bitvectorERSH_ @ 659
;	long ibis::part::doCompare0<long long, std::binder2nd<std::less_equal<long long> > >(array_t<long long> const&, std::binder2nd<std::less_equal<long long> >, ibis::bitvector const&, ibis::bitvector&) const
	_ZNK4ibis4part10doCompare0IxSt9binder2ndISt10less_equalIxEEEElRK7array_tIT_ET0_RKNS_9bitvectorERSC_ @ 660
;	long ibis::part::doCompare0<long long, std::binder2nd<std::greater_equal<long long> > >(array_t<long long> const&, std::binder2nd<std::greater_equal<long long> >, ibis::bitvector const&, ibis::bitvector&) const
	_ZNK4ibis4part10doCompare0IxSt9binder2ndISt13greater_equalIxEEEElRK7array_tIT_ET0_RKNS_9bitvectorERSC_ @ 661
;	long ibis::part::doCompare0<long long, std::binder2nd<std::less<long long> > >(array_t<long long> const&, std::binder2nd<std::less<long long> >, ibis::bitvector const&, ibis::bitvector&) const
	_ZNK4ibis4part10doCompare0IxSt9binder2ndISt4lessIxEEEElRK7array_tIT_ET0_RKNS_9bitvectorERSC_ @ 662
;	long ibis::part::doCompare0<long long, std::binder2nd<std::greater<long long> > >(array_t<long long> const&, std::binder2nd<std::greater<long long> >, ibis::bitvector const&, ibis::bitvector&) const
	_ZNK4ibis4part10doCompare0IxSt9binder2ndISt7greaterIxEEEElRK7array_tIT_ET0_RKNS_9bitvectorERSC_ @ 663
;	long ibis::part::doCompare0<long long, std::binder2nd<std::equal_to<long long> > >(array_t<long long> const&, std::binder2nd<std::equal_to<long long> >, ibis::bitvector const&, ibis::bitvector&) const
	_ZNK4ibis4part10doCompare0IxSt9binder2ndISt8equal_toIxEEEElRK7array_tIT_ET0_RKNS_9bitvectorERSC_ @ 664
;	long ibis::part::doCompare0<unsigned long long, std::binder1st<std::less_equal<unsigned long long> > >(array_t<unsigned long long> const&, std::binder1st<std::less_equal<unsigned long long> >, ibis::bitvector const&, ibis::bitvector&) const
	_ZNK4ibis4part10doCompare0IySt9binder1stISt10less_equalIyEEEElRK7array_tIT_ET0_RKNS_9bitvectorERSC_ @ 665
;	long ibis::part::doCompare0<unsigned long long, std::binder1st<std::less_equal<unsigned long long> >, std::binder2nd<std::less_equal<unsigned long long> > >(array_t<unsigned long long> const&, std::binder1st<std::less_equal<unsigned long long> >, std::binder2nd<std::less_equal<unsigned long long> >, ibis::bitvector const&, ibis::bitvector&) const
	_ZNK4ibis4part10doCompare0IySt9binder1stISt10less_equalIyEESt9binder2ndIS4_EEElRK7array_tIT_ET0_T1_RKNS_9bitvectorERSF_ @ 666
;	long ibis::part::doCompare0<unsigned long long, std::binder1st<std::less_equal<unsigned long long> >, std::binder2nd<std::greater_equal<unsigned long long> > >(array_t<unsigned long long> const&, std::binder1st<std::less_equal<unsigned long long> >, std::binder2nd<std::greater_equal<unsigned long long> >, ibis::bitvector const&, ibis::bitvector&) const
	_ZNK4ibis4part10doCompare0IySt9binder1stISt10less_equalIyEESt9binder2ndISt13greater_equalIyEEEElRK7array_tIT_ET0_T1_RKNS_9bitvectorERSH_ @ 667
;	long ibis::part::doCompare0<unsigned long long, std::binder1st<std::less_equal<unsigned long long> >, std::binder2nd<std::less<unsigned long long> > >(array_t<unsigned long long> const&, std::binder1st<std::less_equal<unsigned long long> >, std::binder2nd<std::less<unsigned long long> >, ibis::bitvector const&, ibis::bitvector&) const
	_ZNK4ibis4part10doCompare0IySt9binder1stISt10less_equalIyEESt9binder2ndISt4lessIyEEEElRK7array_tIT_ET0_T1_RKNS_9bitvectorERSH_ @ 668
;	long ibis::part::doCompare0<unsigned long long, std::binder1st<std::less_equal<unsigned long long> >, std::binder2nd<std::greater<unsigned long long> > >(array_t<unsigned long long> const&, std::binder1st<std::less_equal<unsigned long long> >, std::binder2nd<std::greater<unsigned long long> >, ibis::bitvector const&, ibis::bitvector&) const
	_ZNK4ibis4part10doCompare0IySt9binder1stISt10less_equalIyEESt9binder2ndISt7greaterIyEEEElRK7array_tIT_ET0_T1_RKNS_9bitvectorERSH_ @ 669
;	long ibis::part::doCompare0<unsigned long long, std::binder1st<std::less_equal<unsigned long long> >, std::binder2nd<std::equal_to<unsigned long long> > >(array_t<unsigned long long> const&, std::binder1st<std::less_equal<unsigned long long> >, std::binder2nd<std::equal_to<unsigned long long> >, ibis::bitvector const&, ibis::bitvector&) const
	_ZNK4ibis4part10doCompare0IySt9binder1stISt10less_equalIyEESt9binder2ndISt8equal_toIyEEEElRK7array_tIT_ET0_T1_RKNS_9bitvectorERSH_ @ 670
;	long ibis::part::doCompare0<unsigned long long, std::binder1st<std::greater_equal<unsigned long long> > >(array_t<unsigned long long> const&, std::binder1st<std::greater_equal<unsigned long long> >, ibis::bitvector const&, ibis::bitvector&) const
	_ZNK4ibis4part10doCompare0IySt9binder1stISt13greater_equalIyEEEElRK7array_tIT_ET0_RKNS_9bitvectorERSC_ @ 671
;	long ibis::part::doCompare0<unsigned long long, std::binder1st<std::greater_equal<unsigned long long> >, std::binder2nd<std::greater_equal<unsigned long long> > >(array_t<unsigned long long> const&, std::binder1st<std::greater_equal<unsigned long long> >, std::binder2nd<std::greater_equal<unsigned long long> >, ibis::bitvector const&, ibis::bitvector&) const
	_ZNK4ibis4part10doCompare0IySt9binder1stISt13greater_equalIyEESt9binder2ndIS4_EEElRK7array_tIT_ET0_T1_RKNS_9bitvectorERSF_ @ 672
;	long ibis::part::doCompare0<unsigned long long, std::binder1st<std::greater_equal<unsigned long long> >, std::binder2nd<std::less_equal<unsigned long long> > >(array_t<unsigned long long> const&, std::binder1st<std::greater_equal<unsigned long long> >, std::binder2nd<std::less_equal<unsigned long long> >, ibis::bitvector const&, ibis::bitvector&) const
	_ZNK4ibis4part10doCompare0IySt9binder1stISt13greater_equalIyEESt9binder2ndISt10less_equalIyEEEElRK7array_tIT_ET0_T1_RKNS_9bitvectorERSH_ @ 673
;	long ibis::part::doCompare0<unsigned long long, std::binder1st<std::greater_equal<unsigned long long> >, std::binder2nd<std::less<unsigned long long> > >(array_t<unsigned long long> const&, std::binder1st<std::greater_equal<unsigned long long> >, std::binder2nd<std::less<unsigned long long> >, ibis::bitvector const&, ibis::bitvector&) const
	_ZNK4ibis4part10doCompare0IySt9binder1stISt13greater_equalIyEESt9binder2ndISt4lessIyEEEElRK7array_tIT_ET0_T1_RKNS_9bitvectorERSH_ @ 674
;	long ibis::part::doCompare0<unsigned long long, std::binder1st<std::greater_equal<unsigned long long> >, std::binder2nd<std::greater<unsigned long long> > >(array_t<unsigned long long> const&, std::binder1st<std::greater_equal<unsigned long long> >, std::binder2nd<std::greater<unsigned long long> >, ibis::bitvector const&, ibis::bitvector&) const
	_ZNK4ibis4part10doCompare0IySt9binder1stISt13greater_equalIyEESt9binder2ndISt7greaterIyEEEElRK7array_tIT_ET0_T1_RKNS_9bitvectorERSH_ @ 675
;	long ibis::part::doCompare0<unsigned long long, std::binder1st<std::greater_equal<unsigned long long> >, std::binder2nd<std::equal_to<unsigned long long> > >(array_t<unsigned long long> const&, std::binder1st<std::greater_equal<unsigned long long> >, std::binder2nd<std::equal_to<unsigned long long> >, ibis::bitvector const&, ibis::bitvector&) const
	_ZNK4ibis4part10doCompare0IySt9binder1stISt13greater_equalIyEESt9binder2ndISt8equal_toIyEEEElRK7array_tIT_ET0_T1_RKNS_9bitvectorERSH_ @ 676
;	long ibis::part::doCompare0<unsigned long long, std::binder1st<std::less<unsigned long long> > >(array_t<unsigned long long> const&, std::binder1st<std::less<unsigned long long> >, ibis::bitvector const&, ibis::bitvector&) const
	_ZNK4ibis4part10doCompare0IySt9binder1stISt4lessIyEEEElRK7array_tIT_ET0_RKNS_9bitvectorERSC_ @ 677
;	long ibis::part::doCompare0<unsigned long long, std::binder1st<std::less<unsigned long long> >, std::binder2nd<std::less<unsigned long long> > >(array_t<unsigned long long> const&, std::binder1st<std::less<unsigned long long> >, std::binder2nd<std::less<unsigned long long> >, ibis::bitvector const&, ibis::bitvector&) const
	_ZNK4ibis4part10doCompare0IySt9binder1stISt4lessIyEESt9binder2ndIS4_EEElRK7array_tIT_ET0_T1_RKNS_9bitvectorERSF_ @ 678
;	long ibis::part::doCompare0<unsigned long long, std::binder1st<std::less<unsigned long long> >, std::binder2nd<std::less_equal<unsigned long long> > >(array_t<unsigned long long> const&, std::binder1st<std::less<unsigned long long> >, std::binder2nd<std::less_equal<unsigned long long> >, ibis::bitvector const&, ibis::bitvector&) const
	_ZNK4ibis4part10doCompare0IySt9binder1stISt4lessIyEESt9binder2ndISt10less_equalIyEEEElRK7array_tIT_ET0_T1_RKNS_9bitvectorERSH_ @ 679
;	long ibis::part::doCompare0<unsigned long long, std::binder1st<std::less<unsigned long long> >, std::binder2nd<std::greater_equal<unsigned long long> > >(array_t<unsigned long long> const&, std::binder1st<std::less<unsigned long long> >, std::binder2nd<std::greater_equal<unsigned long long> >, ibis::bitvector const&, ibis::bitvector&) const
	_ZNK4ibis4part10doCompare0IySt9binder1stISt4lessIyEESt9binder2ndISt13greater_equalIyEEEElRK7array_tIT_ET0_T1_RKNS_9bitvectorERSH_ @ 680
;	long ibis::part::doCompare0<unsigned long long, std::binder1st<std::less<unsigned long long> >, std::binder2nd<std::greater<unsigned long long> > >(array_t<unsigned long long> const&, std::binder1st<std::less<unsigned long long> >, std::binder2nd<std::greater<unsigned long long> >, ibis::bitvector const&, ibis::bitvector&) const
	_ZNK4ibis4part10doCompare0IySt9binder1stISt4lessIyEESt9binder2ndISt7greaterIyEEEElRK7array_tIT_ET0_T1_RKNS_9bitvectorERSH_ @ 681
;	long ibis::part::doCompare0<unsigned long long, std::binder1st<std::less<unsigned long long> >, std::binder2nd<std::equal_to<unsigned long long> > >(array_t<unsigned long long> const&, std::binder1st<std::less<unsigned long long> >, std::binder2nd<std::equal_to<unsigned long long> >, ibis::bitvector const&, ibis::bitvector&) const
	_ZNK4ibis4part10doCompare0IySt9binder1stISt4lessIyEESt9binder2ndISt8equal_toIyEEEElRK7array_tIT_ET0_T1_RKNS_9bitvectorERSH_ @ 682
;	long ibis::part::doCompare0<unsigned long long, std::binder1st<std::greater<unsigned long long> > >(array_t<unsigned long long> const&, std::binder1st<std::greater<unsigned long long> >, ibis::bitvector const&, ibis::bitvector&) const
	_ZNK4ibis4part10doCompare0IySt9binder1stISt7greaterIyEEEElRK7array_tIT_ET0_RKNS_9bitvectorERSC_ @ 683
;	long ibis::part::doCompare0<unsigned long long, std::binder1st<std::greater<unsigned long long> >, std::binder2nd<std::greater<unsigned long long> > >(array_t<unsigned long long> const&, std::binder1st<std::greater<unsigned long long> >, std::binder2nd<std::greater<unsigned long long> >, ibis::bitvector const&, ibis::bitvector&) const
	_ZNK4ibis4part10doCompare0IySt9binder1stISt7greaterIyEESt9binder2ndIS4_EEElRK7array_tIT_ET0_T1_RKNS_9bitvectorERSF_ @ 684
;	long ibis::part::doCompare0<unsigned long long, std::binder1st<std::greater<unsigned long long> >, std::binder2nd<std::less_equal<unsigned long long> > >(array_t<unsigned long long> const&, std::binder1st<std::greater<unsigned long long> >, std::binder2nd<std::less_equal<unsigned long long> >, ibis::bitvector const&, ibis::bitvector&) const
	_ZNK4ibis4part10doCompare0IySt9binder1stISt7greaterIyEESt9binder2ndISt10less_equalIyEEEElRK7array_tIT_ET0_T1_RKNS_9bitvectorERSH_ @ 685
;	long ibis::part::doCompare0<unsigned long long, std::binder1st<std::greater<unsigned long long> >, std::binder2nd<std::greater_equal<unsigned long long> > >(array_t<unsigned long long> const&, std::binder1st<std::greater<unsigned long long> >, std::binder2nd<std::greater_equal<unsigned long long> >, ibis::bitvector const&, ibis::bitvector&) const
	_ZNK4ibis4part10doCompare0IySt9binder1stISt7greaterIyEESt9binder2ndISt13greater_equalIyEEEElRK7array_tIT_ET0_T1_RKNS_9bitvectorERSH_ @ 686
;	long ibis::part::doCompare0<unsigned long long, std::binder1st<std::greater<unsigned long long> >, std::binder2nd<std::less<unsigned long long> > >(array_t<unsigned long long> const&, std::binder1st<std::greater<unsigned long long> >, std::binder2nd<std::less<unsigned long long> >, ibis::bitvector const&, ibis::bitvector&) const
	_ZNK4ibis4part10doCompare0IySt9binder1stISt7greaterIyEESt9binder2ndISt4lessIyEEEElRK7array_tIT_ET0_T1_RKNS_9bitvectorERSH_ @ 687
;	long ibis::part::doCompare0<unsigned long long, std::binder1st<std::greater<unsigned long long> >, std::binder2nd<std::equal_to<unsigned long long> > >(array_t<unsigned long long> const&, std::binder1st<std::greater<unsigned long long> >, std::binder2nd<std::equal_to<unsigned long long> >, ibis::bitvector const&, ibis::bitvector&) const
	_ZNK4ibis4part10doCompare0IySt9binder1stISt7greaterIyEESt9binder2ndISt8equal_toIyEEEElRK7array_tIT_ET0_T1_RKNS_9bitvectorERSH_ @ 688
;	long ibis::part::doCompare0<unsigned long long, std::binder1st<std::equal_to<unsigned long long> > >(array_t<unsigned long long> const&, std::binder1st<std::equal_to<unsigned long long> >, ibis::bitvector const&, ibis::bitvector&) const
	_ZNK4ibis4part10doCompare0IySt9binder1stISt8equal_toIyEEEElRK7array_tIT_ET0_RKNS_9bitvectorERSC_ @ 689
;	long ibis::part::doCompare0<unsigned long long, std::binder1st<std::equal_to<unsigned long long> >, std::binder2nd<std::equal_to<unsigned long long> > >(array_t<unsigned long long> const&, std::binder1st<std::equal_to<unsigned long long> >, std::binder2nd<std::equal_to<unsigned long long> >, ibis::bitvector const&, ibis::bitvector&) const
	_ZNK4ibis4part10doCompare0IySt9binder1stISt8equal_toIyEESt9binder2ndIS4_EEElRK7array_tIT_ET0_T1_RKNS_9bitvectorERSF_ @ 690
;	long ibis::part::doCompare0<unsigned long long, std::binder1st<std::equal_to<unsigned long long> >, std::binder2nd<std::less_equal<unsigned long long> > >(array_t<unsigned long long> const&, std::binder1st<std::equal_to<unsigned long long> >, std::binder2nd<std::less_equal<unsigned long long> >, ibis::bitvector const&, ibis::bitvector&) const
	_ZNK4ibis4part10doCompare0IySt9binder1stISt8equal_toIyEESt9binder2ndISt10less_equalIyEEEElRK7array_tIT_ET0_T1_RKNS_9bitvectorERSH_ @ 691
;	long ibis::part::doCompare0<unsigned long long, std::binder1st<std::equal_to<unsigned long long> >, std::binder2nd<std::greater_equal<unsigned long long> > >(array_t<unsigned long long> const&, std::binder1st<std::equal_to<unsigned long long> >, std::binder2nd<std::greater_equal<unsigned long long> >, ibis::bitvector const&, ibis::bitvector&) const
	_ZNK4ibis4part10doCompare0IySt9binder1stISt8equal_toIyEESt9binder2ndISt13greater_equalIyEEEElRK7array_tIT_ET0_T1_RKNS_9bitvectorERSH_ @ 692
;	long ibis::part::doCompare0<unsigned long long, std::binder1st<std::equal_to<unsigned long long> >, std::binder2nd<std::less<unsigned long long> > >(array_t<unsigned long long> const&, std::binder1st<std::equal_to<unsigned long long> >, std::binder2nd<std::less<unsigned long long> >, ibis::bitvector const&, ibis::bitvector&) const
	_ZNK4ibis4part10doCompare0IySt9binder1stISt8equal_toIyEESt9binder2ndISt4lessIyEEEElRK7array_tIT_ET0_T1_RKNS_9bitvectorERSH_ @ 693
;	long ibis::part::doCompare0<unsigned long long, std::binder1st<std::equal_to<unsigned long long> >, std::binder2nd<std::greater<unsigned long long> > >(array_t<unsigned long long> const&, std::binder1st<std::equal_to<unsigned long long> >, std::binder2nd<std::greater<unsigned long long> >, ibis::bitvector const&, ibis::bitvector&) const
	_ZNK4ibis4part10doCompare0IySt9binder1stISt8equal_toIyEESt9binder2ndISt7greaterIyEEEElRK7array_tIT_ET0_T1_RKNS_9bitvectorERSH_ @ 694
;	long ibis::part::doCompare0<unsigned long long, std::binder2nd<std::less_equal<unsigned long long> > >(array_t<unsigned long long> const&, std::binder2nd<std::less_equal<unsigned long long> >, ibis::bitvector const&, ibis::bitvector&) const
	_ZNK4ibis4part10doCompare0IySt9binder2ndISt10less_equalIyEEEElRK7array_tIT_ET0_RKNS_9bitvectorERSC_ @ 695
;	long ibis::part::doCompare0<unsigned long long, std::binder2nd<std::greater_equal<unsigned long long> > >(array_t<unsigned long long> const&, std::binder2nd<std::greater_equal<unsigned long long> >, ibis::bitvector const&, ibis::bitvector&) const
	_ZNK4ibis4part10doCompare0IySt9binder2ndISt13greater_equalIyEEEElRK7array_tIT_ET0_RKNS_9bitvectorERSC_ @ 696
;	long ibis::part::doCompare0<unsigned long long, std::binder2nd<std::less<unsigned long long> > >(array_t<unsigned long long> const&, std::binder2nd<std::less<unsigned long long> >, ibis::bitvector const&, ibis::bitvector&) const
	_ZNK4ibis4part10doCompare0IySt9binder2ndISt4lessIyEEEElRK7array_tIT_ET0_RKNS_9bitvectorERSC_ @ 697
;	long ibis::part::doCompare0<unsigned long long, std::binder2nd<std::greater<unsigned long long> > >(array_t<unsigned long long> const&, std::binder2nd<std::greater<unsigned long long> >, ibis::bitvector const&, ibis::bitvector&) const
	_ZNK4ibis4part10doCompare0IySt9binder2ndISt7greaterIyEEEElRK7array_tIT_ET0_RKNS_9bitvectorERSC_ @ 698
;	long ibis::part::doCompare0<unsigned long long, std::binder2nd<std::equal_to<unsigned long long> > >(array_t<unsigned long long> const&, std::binder2nd<std::equal_to<unsigned long long> >, ibis::bitvector const&, ibis::bitvector&) const
	_ZNK4ibis4part10doCompare0IySt9binder2ndISt8equal_toIyEEEElRK7array_tIT_ET0_RKNS_9bitvectorERSC_ @ 699
;	ibis::part::logMessage(char const*, char const*, ...) const
	_ZNK4ibis4part10logMessageEPKcS2_z @ 700
;	ibis::part::logWarning(char const*, char const*, ...) const
	_ZNK4ibis4part10logWarningEPKcS2_z @ 701
;	ibis::part::searchRIDs(array_t<ibis::rid_t> const&, ibis::bitvector&) const
	_ZNK4ibis4part10searchRIDsERK7array_tINS_5rid_tEERNS_9bitvectorE @ 702
;	ibis::part::searchRIDs(ibis::rid_t const&) const
	_ZNK4ibis4part10searchRIDsERKNS_5rid_tE @ 703
;	ibis::part::selectInts(char const*, ibis::bitvector const&) const
	_ZNK4ibis4part10selectIntsEPKcRKNS_9bitvectorE @ 704
;	long ibis::part::count2DBins<double, double>(array_t<double> const&, double const&, double const&, double const&, array_t<double> const&, double const&, double const&, double const&, std::vector<unsigned int, std::allocator<unsigned int> >&) const
	_ZNK4ibis4part11count2DBinsIddEElRK7array_tIT_ERKdS8_S8_RKS2_IT0_ES8_S8_S8_RSt6vectorIjSaIjEE @ 705
;	long ibis::part::count2DBins<double, float>(array_t<double> const&, double const&, double const&, double const&, array_t<float> const&, double const&, double const&, double const&, std::vector<unsigned int, std::allocator<unsigned int> >&) const
	_ZNK4ibis4part11count2DBinsIdfEElRK7array_tIT_ERKdS8_S8_RKS2_IT0_ES8_S8_S8_RSt6vectorIjSaIjEE @ 706
;	long ibis::part::count2DBins<double, long>(array_t<double> const&, double const&, double const&, double const&, array_t<long> const&, double const&, double const&, double const&, std::vector<unsigned int, std::allocator<unsigned int> >&) const
	_ZNK4ibis4part11count2DBinsIdlEElRK7array_tIT_ERKdS8_S8_RKS2_IT0_ES8_S8_S8_RSt6vectorIjSaIjEE @ 707
;	long ibis::part::count2DBins<double, unsigned long>(array_t<double> const&, double const&, double const&, double const&, array_t<unsigned long> const&, double const&, double const&, double const&, std::vector<unsigned int, std::allocator<unsigned int> >&) const
	_ZNK4ibis4part11count2DBinsIdmEElRK7array_tIT_ERKdS8_S8_RKS2_IT0_ES8_S8_S8_RSt6vectorIjSaIjEE @ 708
;	long ibis::part::count2DBins<double, long long>(array_t<double> const&, double const&, double const&, double const&, array_t<long long> const&, double const&, double const&, double const&, std::vector<unsigned int, std::allocator<unsigned int> >&) const
	_ZNK4ibis4part11count2DBinsIdxEElRK7array_tIT_ERKdS8_S8_RKS2_IT0_ES8_S8_S8_RSt6vectorIjSaIjEE @ 709
;	long ibis::part::count2DBins<float, double>(array_t<float> const&, double const&, double const&, double const&, array_t<double> const&, double const&, double const&, double const&, std::vector<unsigned int, std::allocator<unsigned int> >&) const
	_ZNK4ibis4part11count2DBinsIfdEElRK7array_tIT_ERKdS8_S8_RKS2_IT0_ES8_S8_S8_RSt6vectorIjSaIjEE @ 710
;	long ibis::part::count2DBins<float, float>(array_t<float> const&, double const&, double const&, double const&, array_t<float> const&, double const&, double const&, double const&, std::vector<unsigned int, std::allocator<unsigned int> >&) const
	_ZNK4ibis4part11count2DBinsIffEElRK7array_tIT_ERKdS8_S8_RKS2_IT0_ES8_S8_S8_RSt6vectorIjSaIjEE @ 711
;	long ibis::part::count2DBins<float, long>(array_t<float> const&, double const&, double const&, double const&, array_t<long> const&, double const&, double const&, double const&, std::vector<unsigned int, std::allocator<unsigned int> >&) const
	_ZNK4ibis4part11count2DBinsIflEElRK7array_tIT_ERKdS8_S8_RKS2_IT0_ES8_S8_S8_RSt6vectorIjSaIjEE @ 712
;	long ibis::part::count2DBins<float, unsigned long>(array_t<float> const&, double const&, double const&, double const&, array_t<unsigned long> const&, double const&, double const&, double const&, std::vector<unsigned int, std::allocator<unsigned int> >&) const
	_ZNK4ibis4part11count2DBinsIfmEElRK7array_tIT_ERKdS8_S8_RKS2_IT0_ES8_S8_S8_RSt6vectorIjSaIjEE @ 713
;	long ibis::part::count2DBins<float, long long>(array_t<float> const&, double const&, double const&, double const&, array_t<long long> const&, double const&, double const&, double const&, std::vector<unsigned int, std::allocator<unsigned int> >&) const
	_ZNK4ibis4part11count2DBinsIfxEElRK7array_tIT_ERKdS8_S8_RKS2_IT0_ES8_S8_S8_RSt6vectorIjSaIjEE @ 714
;	long ibis::part::count2DBins<long, double>(array_t<long> const&, double const&, double const&, double const&, array_t<double> const&, double const&, double const&, double const&, std::vector<unsigned int, std::allocator<unsigned int> >&) const
	_ZNK4ibis4part11count2DBinsIldEElRK7array_tIT_ERKdS8_S8_RKS2_IT0_ES8_S8_S8_RSt6vectorIjSaIjEE @ 715
;	long ibis::part::count2DBins<long, float>(array_t<long> const&, double const&, double const&, double const&, array_t<float> const&, double const&, double const&, double const&, std::vector<unsigned int, std::allocator<unsigned int> >&) const
	_ZNK4ibis4part11count2DBinsIlfEElRK7array_tIT_ERKdS8_S8_RKS2_IT0_ES8_S8_S8_RSt6vectorIjSaIjEE @ 716
;	long ibis::part::count2DBins<long, long>(array_t<long> const&, double const&, double const&, double const&, array_t<long> const&, double const&, double const&, double const&, std::vector<unsigned int, std::allocator<unsigned int> >&) const
	_ZNK4ibis4part11count2DBinsIllEElRK7array_tIT_ERKdS8_S8_RKS2_IT0_ES8_S8_S8_RSt6vectorIjSaIjEE @ 717
;	long ibis::part::count2DBins<long, unsigned long>(array_t<long> const&, double const&, double const&, double const&, array_t<unsigned long> const&, double const&, double const&, double const&, std::vector<unsigned int, std::allocator<unsigned int> >&) const
	_ZNK4ibis4part11count2DBinsIlmEElRK7array_tIT_ERKdS8_S8_RKS2_IT0_ES8_S8_S8_RSt6vectorIjSaIjEE @ 718
;	long ibis::part::count2DBins<long, long long>(array_t<long> const&, double const&, double const&, double const&, array_t<long long> const&, double const&, double const&, double const&, std::vector<unsigned int, std::allocator<unsigned int> >&) const
	_ZNK4ibis4part11count2DBinsIlxEElRK7array_tIT_ERKdS8_S8_RKS2_IT0_ES8_S8_S8_RSt6vectorIjSaIjEE @ 719
;	long ibis::part::count2DBins<unsigned long, double>(array_t<unsigned long> const&, double const&, double const&, double const&, array_t<double> const&, double const&, double const&, double const&, std::vector<unsigned int, std::allocator<unsigned int> >&) const
	_ZNK4ibis4part11count2DBinsImdEElRK7array_tIT_ERKdS8_S8_RKS2_IT0_ES8_S8_S8_RSt6vectorIjSaIjEE @ 720
;	long ibis::part::count2DBins<unsigned long, float>(array_t<unsigned long> const&, double const&, double const&, double const&, array_t<float> const&, double const&, double const&, double const&, std::vector<unsigned int, std::allocator<unsigned int> >&) const
	_ZNK4ibis4part11count2DBinsImfEElRK7array_tIT_ERKdS8_S8_RKS2_IT0_ES8_S8_S8_RSt6vectorIjSaIjEE @ 721
;	long ibis::part::count2DBins<unsigned long, long>(array_t<unsigned long> const&, double const&, double const&, double const&, array_t<long> const&, double const&, double const&, double const&, std::vector<unsigned int, std::allocator<unsigned int> >&) const
	_ZNK4ibis4part11count2DBinsImlEElRK7array_tIT_ERKdS8_S8_RKS2_IT0_ES8_S8_S8_RSt6vectorIjSaIjEE @ 722
;	long ibis::part::count2DBins<unsigned long, unsigned long>(array_t<unsigned long> const&, double const&, double const&, double const&, array_t<unsigned long> const&, double const&, double const&, double const&, std::vector<unsigned int, std::allocator<unsigned int> >&) const
	_ZNK4ibis4part11count2DBinsImmEElRK7array_tIT_ERKdS8_S8_RKS2_IT0_ES8_S8_S8_RSt6vectorIjSaIjEE @ 723
;	long ibis::part::count2DBins<unsigned long, long long>(array_t<unsigned long> const&, double const&, double const&, double const&, array_t<long long> const&, double const&, double const&, double const&, std::vector<unsigned int, std::allocator<unsigned int> >&) const
	_ZNK4ibis4part11count2DBinsImxEElRK7array_tIT_ERKdS8_S8_RKS2_IT0_ES8_S8_S8_RSt6vectorIjSaIjEE @ 724
;	long ibis::part::count2DBins<long long, double>(array_t<long long> const&, double const&, double const&, double const&, array_t<double> const&, double const&, double const&, double const&, std::vector<unsigned int, std::allocator<unsigned int> >&) const
	_ZNK4ibis4part11count2DBinsIxdEElRK7array_tIT_ERKdS8_S8_RKS2_IT0_ES8_S8_S8_RSt6vectorIjSaIjEE @ 725
;	long ibis::part::count2DBins<long long, float>(array_t<long long> const&, double const&, double const&, double const&, array_t<float> const&, double const&, double const&, double const&, std::vector<unsigned int, std::allocator<unsigned int> >&) const
	_ZNK4ibis4part11count2DBinsIxfEElRK7array_tIT_ERKdS8_S8_RKS2_IT0_ES8_S8_S8_RSt6vectorIjSaIjEE @ 726
;	long ibis::part::count2DBins<long long, long>(array_t<long long> const&, double const&, double const&, double const&, array_t<long> const&, double const&, double const&, double const&, std::vector<unsigned int, std::allocator<unsigned int> >&) const
	_ZNK4ibis4part11count2DBinsIxlEElRK7array_tIT_ERKdS8_S8_RKS2_IT0_ES8_S8_S8_RSt6vectorIjSaIjEE @ 727
;	long ibis::part::count2DBins<long long, unsigned long>(array_t<long long> const&, double const&, double const&, double const&, array_t<unsigned long> const&, double const&, double const&, double const&, std::vector<unsigned int, std::allocator<unsigned int> >&) const
	_ZNK4ibis4part11count2DBinsIxmEElRK7array_tIT_ERKdS8_S8_RKS2_IT0_ES8_S8_S8_RSt6vectorIjSaIjEE @ 728
;	long ibis::part::count2DBins<long long, long long>(array_t<long long> const&, double const&, double const&, double const&, array_t<long long> const&, double const&, double const&, double const&, std::vector<unsigned int, std::allocator<unsigned int> >&) const
	_ZNK4ibis4part11count2DBinsIxxEElRK7array_tIT_ERKdS8_S8_RKS2_IT0_ES8_S8_S8_RSt6vectorIjSaIjEE @ 729
;	long ibis::part::count3DBins<double, double, double>(array_t<double> const&, double const&, double const&, double const&, array_t<double> const&, double const&, double const&, double const&, array_t<double> const&, double const&, double const&, double const&, std::vector<unsigned int, std::allocator<unsigned int> >&) const
	_ZNK4ibis4part11count3DBinsIdddEElRK7array_tIT_ERKdS8_S8_RKS2_IT0_ES8_S8_S8_RKS2_IT1_ES8_S8_S8_RSt6vectorIjSaIjEE @ 730
;	long ibis::part::count3DBins<double, double, float>(array_t<double> const&, double const&, double const&, double const&, array_t<double> const&, double const&, double const&, double const&, array_t<float> const&, double const&, double const&, double const&, std::vector<unsigned int, std::allocator<unsigned int> >&) const
	_ZNK4ibis4part11count3DBinsIddfEElRK7array_tIT_ERKdS8_S8_RKS2_IT0_ES8_S8_S8_RKS2_IT1_ES8_S8_S8_RSt6vectorIjSaIjEE @ 731
;	long ibis::part::count3DBins<double, double, long>(array_t<double> const&, double const&, double const&, double const&, array_t<double> const&, double const&, double const&, double const&, array_t<long> const&, double const&, double const&, double const&, std::vector<unsigned int, std::allocator<unsigned int> >&) const
	_ZNK4ibis4part11count3DBinsIddlEElRK7array_tIT_ERKdS8_S8_RKS2_IT0_ES8_S8_S8_RKS2_IT1_ES8_S8_S8_RSt6vectorIjSaIjEE @ 732
;	long ibis::part::count3DBins<double, double, unsigned long>(array_t<double> const&, double const&, double const&, double const&, array_t<double> const&, double const&, double const&, double const&, array_t<unsigned long> const&, double const&, double const&, double const&, std::vector<unsigned int, std::allocator<unsigned int> >&) const
	_ZNK4ibis4part11count3DBinsIddmEElRK7array_tIT_ERKdS8_S8_RKS2_IT0_ES8_S8_S8_RKS2_IT1_ES8_S8_S8_RSt6vectorIjSaIjEE @ 733
;	long ibis::part::count3DBins<double, double, long long>(array_t<double> const&, double const&, double const&, double const&, array_t<double> const&, double const&, double const&, double const&, array_t<long long> const&, double const&, double const&, double const&, std::vector<unsigned int, std::allocator<unsigned int> >&) const
	_ZNK4ibis4part11count3DBinsIddxEElRK7array_tIT_ERKdS8_S8_RKS2_IT0_ES8_S8_S8_RKS2_IT1_ES8_S8_S8_RSt6vectorIjSaIjEE @ 734
;	long ibis::part::count3DBins<double, float, float>(array_t<double> const&, double const&, double const&, double const&, array_t<float> const&, double const&, double const&, double const&, array_t<float> const&, double const&, double const&, double const&, std::vector<unsigned int, std::allocator<unsigned int> >&) const
	_ZNK4ibis4part11count3DBinsIdffEElRK7array_tIT_ERKdS8_S8_RKS2_IT0_ES8_S8_S8_RKS2_IT1_ES8_S8_S8_RSt6vectorIjSaIjEE @ 735
;	long ibis::part::count3DBins<double, float, long>(array_t<double> const&, double const&, double const&, double const&, array_t<float> const&, double const&, double const&, double const&, array_t<long> const&, double const&, double const&, double const&, std::vector<unsigned int, std::allocator<unsigned int> >&) const
	_ZNK4ibis4part11count3DBinsIdflEElRK7array_tIT_ERKdS8_S8_RKS2_IT0_ES8_S8_S8_RKS2_IT1_ES8_S8_S8_RSt6vectorIjSaIjEE @ 736
;	long ibis::part::count3DBins<double, float, unsigned long>(array_t<double> const&, double const&, double const&, double const&, array_t<float> const&, double const&, double const&, double const&, array_t<unsigned long> const&, double const&, double const&, double const&, std::vector<unsigned int, std::allocator<unsigned int> >&) const
	_ZNK4ibis4part11count3DBinsIdfmEElRK7array_tIT_ERKdS8_S8_RKS2_IT0_ES8_S8_S8_RKS2_IT1_ES8_S8_S8_RSt6vectorIjSaIjEE @ 737
;	long ibis::part::count3DBins<double, float, long long>(array_t<double> const&, double const&, double const&, double const&, array_t<float> const&, double const&, double const&, double const&, array_t<long long> const&, double const&, double const&, double const&, std::vector<unsigned int, std::allocator<unsigned int> >&) const
	_ZNK4ibis4part11count3DBinsIdfxEElRK7array_tIT_ERKdS8_S8_RKS2_IT0_ES8_S8_S8_RKS2_IT1_ES8_S8_S8_RSt6vectorIjSaIjEE @ 738
;	long ibis::part::count3DBins<double, long, float>(array_t<double> const&, double const&, double const&, double const&, array_t<long> const&, double const&, double const&, double const&, array_t<float> const&, double const&, double const&, double const&, std::vector<unsigned int, std::allocator<unsigned int> >&) const
	_ZNK4ibis4part11count3DBinsIdlfEElRK7array_tIT_ERKdS8_S8_RKS2_IT0_ES8_S8_S8_RKS2_IT1_ES8_S8_S8_RSt6vectorIjSaIjEE @ 739
;	long ibis::part::count3DBins<double, long, long>(array_t<double> const&, double const&, double const&, double const&, array_t<long> const&, double const&, double const&, double const&, array_t<long> const&, double const&, double const&, double const&, std::vector<unsigned int, std::allocator<unsigned int> >&) const
	_ZNK4ibis4part11count3DBinsIdllEElRK7array_tIT_ERKdS8_S8_RKS2_IT0_ES8_S8_S8_RKS2_IT1_ES8_S8_S8_RSt6vectorIjSaIjEE @ 740
;	long ibis::part::count3DBins<double, long, unsigned long>(array_t<double> const&, double const&, double const&, double const&, array_t<long> const&, double const&, double const&, double const&, array_t<unsigned long> const&, double const&, double const&, double const&, std::vector<unsigned int, std::allocator<unsigned int> >&) const
	_ZNK4ibis4part11count3DBinsIdlmEElRK7array_tIT_ERKdS8_S8_RKS2_IT0_ES8_S8_S8_RKS2_IT1_ES8_S8_S8_RSt6vectorIjSaIjEE @ 741
;	long ibis::part::count3DBins<double, long, long long>(array_t<double> const&, double const&, double const&, double const&, array_t<long> const&, double const&, double const&, double const&, array_t<long long> const&, double const&, double const&, double const&, std::vector<unsigned int, std::allocator<unsigned int> >&) const
	_ZNK4ibis4part11count3DBinsIdlxEElRK7array_tIT_ERKdS8_S8_RKS2_IT0_ES8_S8_S8_RKS2_IT1_ES8_S8_S8_RSt6vectorIjSaIjEE @ 742
;	long ibis::part::count3DBins<double, unsigned long, float>(array_t<double> const&, double const&, double const&, double const&, array_t<unsigned long> const&, double const&, double const&, double const&, array_t<float> const&, double const&, double const&, double const&, std::vector<unsigned int, std::allocator<unsigned int> >&) const
	_ZNK4ibis4part11count3DBinsIdmfEElRK7array_tIT_ERKdS8_S8_RKS2_IT0_ES8_S8_S8_RKS2_IT1_ES8_S8_S8_RSt6vectorIjSaIjEE @ 743
;	long ibis::part::count3DBins<double, unsigned long, long>(array_t<double> const&, double const&, double const&, double const&, array_t<unsigned long> const&, double const&, double const&, double const&, array_t<long> const&, double const&, double const&, double const&, std::vector<unsigned int, std::allocator<unsigned int> >&) const
	_ZNK4ibis4part11count3DBinsIdmlEElRK7array_tIT_ERKdS8_S8_RKS2_IT0_ES8_S8_S8_RKS2_IT1_ES8_S8_S8_RSt6vectorIjSaIjEE @ 744
;	long ibis::part::count3DBins<double, unsigned long, unsigned long>(array_t<double> const&, double const&, double const&, double const&, array_t<unsigned long> const&, double const&, double const&, double const&, array_t<unsigned long> const&, double const&, double const&, double const&, std::vector<unsigned int, std::allocator<unsigned int> >&) const
	_ZNK4ibis4part11count3DBinsIdmmEElRK7array_tIT_ERKdS8_S8_RKS2_IT0_ES8_S8_S8_RKS2_IT1_ES8_S8_S8_RSt6vectorIjSaIjEE @ 745
;	long ibis::part::count3DBins<double, unsigned long, long long>(array_t<double> const&, double const&, double const&, double const&, array_t<unsigned long> const&, double const&, double const&, double const&, array_t<long long> const&, double const&, double const&, double const&, std::vector<unsigned int, std::allocator<unsigned int> >&) const
	_ZNK4ibis4part11count3DBinsIdmxEElRK7array_tIT_ERKdS8_S8_RKS2_IT0_ES8_S8_S8_RKS2_IT1_ES8_S8_S8_RSt6vectorIjSaIjEE @ 746
;	long ibis::part::count3DBins<double, long long, float>(array_t<double> const&, double const&, double const&, double const&, array_t<long long> const&, double const&, double const&, double const&, array_t<float> const&, double const&, double const&, double const&, std::vector<unsigned int, std::allocator<unsigned int> >&) const
	_ZNK4ibis4part11count3DBinsIdxfEElRK7array_tIT_ERKdS8_S8_RKS2_IT0_ES8_S8_S8_RKS2_IT1_ES8_S8_S8_RSt6vectorIjSaIjEE @ 747
;	long ibis::part::count3DBins<double, long long, long>(array_t<double> const&, double const&, double const&, double const&, array_t<long long> const&, double const&, double const&, double const&, array_t<long> const&, double const&, double const&, double const&, std::vector<unsigned int, std::allocator<unsigned int> >&) const
	_ZNK4ibis4part11count3DBinsIdxlEElRK7array_tIT_ERKdS8_S8_RKS2_IT0_ES8_S8_S8_RKS2_IT1_ES8_S8_S8_RSt6vectorIjSaIjEE @ 748
;	long ibis::part::count3DBins<double, long long, unsigned long>(array_t<double> const&, double const&, double const&, double const&, array_t<long long> const&, double const&, double const&, double const&, array_t<unsigned long> const&, double const&, double const&, double const&, std::vector<unsigned int, std::allocator<unsigned int> >&) const
	_ZNK4ibis4part11count3DBinsIdxmEElRK7array_tIT_ERKdS8_S8_RKS2_IT0_ES8_S8_S8_RKS2_IT1_ES8_S8_S8_RSt6vectorIjSaIjEE @ 749
;	long ibis::part::count3DBins<double, long long, long long>(array_t<double> const&, double const&, double const&, double const&, array_t<long long> const&, double const&, double const&, double const&, array_t<long long> const&, double const&, double const&, double const&, std::vector<unsigned int, std::allocator<unsigned int> >&) const
	_ZNK4ibis4part11count3DBinsIdxxEElRK7array_tIT_ERKdS8_S8_RKS2_IT0_ES8_S8_S8_RKS2_IT1_ES8_S8_S8_RSt6vectorIjSaIjEE @ 750
;	long ibis::part::count3DBins<float, double, double>(array_t<float> const&, double const&, double const&, double const&, array_t<double> const&, double const&, double const&, double const&, array_t<double> const&, double const&, double const&, double const&, std::vector<unsigned int, std::allocator<unsigned int> >&) const
	_ZNK4ibis4part11count3DBinsIfddEElRK7array_tIT_ERKdS8_S8_RKS2_IT0_ES8_S8_S8_RKS2_IT1_ES8_S8_S8_RSt6vectorIjSaIjEE @ 751
;	long ibis::part::count3DBins<float, double, float>(array_t<float> const&, double const&, double const&, double const&, array_t<double> const&, double const&, double const&, double const&, array_t<float> const&, double const&, double const&, double const&, std::vector<unsigned int, std::allocator<unsigned int> >&) const
	_ZNK4ibis4part11count3DBinsIfdfEElRK7array_tIT_ERKdS8_S8_RKS2_IT0_ES8_S8_S8_RKS2_IT1_ES8_S8_S8_RSt6vectorIjSaIjEE @ 752
;	long ibis::part::count3DBins<float, double, long>(array_t<float> const&, double const&, double const&, double const&, array_t<double> const&, double const&, double const&, double const&, array_t<long> const&, double const&, double const&, double const&, std::vector<unsigned int, std::allocator<unsigned int> >&) const
	_ZNK4ibis4part11count3DBinsIfdlEElRK7array_tIT_ERKdS8_S8_RKS2_IT0_ES8_S8_S8_RKS2_IT1_ES8_S8_S8_RSt6vectorIjSaIjEE @ 753
;	long ibis::part::count3DBins<float, double, unsigned long>(array_t<float> const&, double const&, double const&, double const&, array_t<double> const&, double const&, double const&, double const&, array_t<unsigned long> const&, double const&, double const&, double const&, std::vector<unsigned int, std::allocator<unsigned int> >&) const
	_ZNK4ibis4part11count3DBinsIfdmEElRK7array_tIT_ERKdS8_S8_RKS2_IT0_ES8_S8_S8_RKS2_IT1_ES8_S8_S8_RSt6vectorIjSaIjEE @ 754
;	long ibis::part::count3DBins<float, double, long long>(array_t<float> const&, double const&, double const&, double const&, array_t<double> const&, double const&, double const&, double const&, array_t<long long> const&, double const&, double const&, double const&, std::vector<unsigned int, std::allocator<unsigned int> >&) const
	_ZNK4ibis4part11count3DBinsIfdxEElRK7array_tIT_ERKdS8_S8_RKS2_IT0_ES8_S8_S8_RKS2_IT1_ES8_S8_S8_RSt6vectorIjSaIjEE @ 755
;	long ibis::part::count3DBins<float, float, float>(array_t<float> const&, double const&, double const&, double const&, array_t<float> const&, double const&, double const&, double const&, array_t<float> const&, double const&, double const&, double const&, std::vector<unsigned int, std::allocator<unsigned int> >&) const
	_ZNK4ibis4part11count3DBinsIfffEElRK7array_tIT_ERKdS8_S8_RKS2_IT0_ES8_S8_S8_RKS2_IT1_ES8_S8_S8_RSt6vectorIjSaIjEE @ 756
;	long ibis::part::count3DBins<float, float, long>(array_t<float> const&, double const&, double const&, double const&, array_t<float> const&, double const&, double const&, double const&, array_t<long> const&, double const&, double const&, double const&, std::vector<unsigned int, std::allocator<unsigned int> >&) const
	_ZNK4ibis4part11count3DBinsIfflEElRK7array_tIT_ERKdS8_S8_RKS2_IT0_ES8_S8_S8_RKS2_IT1_ES8_S8_S8_RSt6vectorIjSaIjEE @ 757
;	long ibis::part::count3DBins<float, float, unsigned long>(array_t<float> const&, double const&, double const&, double const&, array_t<float> const&, double const&, double const&, double const&, array_t<unsigned long> const&, double const&, double const&, double const&, std::vector<unsigned int, std::allocator<unsigned int> >&) const
	_ZNK4ibis4part11count3DBinsIffmEElRK7array_tIT_ERKdS8_S8_RKS2_IT0_ES8_S8_S8_RKS2_IT1_ES8_S8_S8_RSt6vectorIjSaIjEE @ 758
;	long ibis::part::count3DBins<float, float, long long>(array_t<float> const&, double const&, double const&, double const&, array_t<float> const&, double const&, double const&, double const&, array_t<long long> const&, double const&, double const&, double const&, std::vector<unsigned int, std::allocator<unsigned int> >&) const
	_ZNK4ibis4part11count3DBinsIffxEElRK7array_tIT_ERKdS8_S8_RKS2_IT0_ES8_S8_S8_RKS2_IT1_ES8_S8_S8_RSt6vectorIjSaIjEE @ 759
;	long ibis::part::count3DBins<float, long, float>(array_t<float> const&, double const&, double const&, double const&, array_t<long> const&, double const&, double const&, double const&, array_t<float> const&, double const&, double const&, double const&, std::vector<unsigned int, std::allocator<unsigned int> >&) const
	_ZNK4ibis4part11count3DBinsIflfEElRK7array_tIT_ERKdS8_S8_RKS2_IT0_ES8_S8_S8_RKS2_IT1_ES8_S8_S8_RSt6vectorIjSaIjEE @ 760
;	long ibis::part::count3DBins<float, long, long>(array_t<float> const&, double const&, double const&, double const&, array_t<long> const&, double const&, double const&, double const&, array_t<long> const&, double const&, double const&, double const&, std::vector<unsigned int, std::allocator<unsigned int> >&) const
	_ZNK4ibis4part11count3DBinsIfllEElRK7array_tIT_ERKdS8_S8_RKS2_IT0_ES8_S8_S8_RKS2_IT1_ES8_S8_S8_RSt6vectorIjSaIjEE @ 761
;	long ibis::part::count3DBins<float, long, unsigned long>(array_t<float> const&, double const&, double const&, double const&, array_t<long> const&, double const&, double const&, double const&, array_t<unsigned long> const&, double const&, double const&, double const&, std::vector<unsigned int, std::allocator<unsigned int> >&) const
	_ZNK4ibis4part11count3DBinsIflmEElRK7array_tIT_ERKdS8_S8_RKS2_IT0_ES8_S8_S8_RKS2_IT1_ES8_S8_S8_RSt6vectorIjSaIjEE @ 762
;	long ibis::part::count3DBins<float, long, long long>(array_t<float> const&, double const&, double const&, double const&, array_t<long> const&, double const&, double const&, double const&, array_t<long long> const&, double const&, double const&, double const&, std::vector<unsigned int, std::allocator<unsigned int> >&) const
	_ZNK4ibis4part11count3DBinsIflxEElRK7array_tIT_ERKdS8_S8_RKS2_IT0_ES8_S8_S8_RKS2_IT1_ES8_S8_S8_RSt6vectorIjSaIjEE @ 763
;	long ibis::part::count3DBins<float, unsigned long, float>(array_t<float> const&, double const&, double const&, double const&, array_t<unsigned long> const&, double const&, double const&, double const&, array_t<float> const&, double const&, double const&, double const&, std::vector<unsigned int, std::allocator<unsigned int> >&) const
	_ZNK4ibis4part11count3DBinsIfmfEElRK7array_tIT_ERKdS8_S8_RKS2_IT0_ES8_S8_S8_RKS2_IT1_ES8_S8_S8_RSt6vectorIjSaIjEE @ 764
;	long ibis::part::count3DBins<float, unsigned long, long>(array_t<float> const&, double const&, double const&, double const&, array_t<unsigned long> const&, double const&, double const&, double const&, array_t<long> const&, double const&, double const&, double const&, std::vector<unsigned int, std::allocator<unsigned int> >&) const
	_ZNK4ibis4part11count3DBinsIfmlEElRK7array_tIT_ERKdS8_S8_RKS2_IT0_ES8_S8_S8_RKS2_IT1_ES8_S8_S8_RSt6vectorIjSaIjEE @ 765
;	long ibis::part::count3DBins<float, unsigned long, unsigned long>(array_t<float> const&, double const&, double const&, double const&, array_t<unsigned long> const&, double const&, double const&, double const&, array_t<unsigned long> const&, double const&, double const&, double const&, std::vector<unsigned int, std::allocator<unsigned int> >&) const
	_ZNK4ibis4part11count3DBinsIfmmEElRK7array_tIT_ERKdS8_S8_RKS2_IT0_ES8_S8_S8_RKS2_IT1_ES8_S8_S8_RSt6vectorIjSaIjEE @ 766
;	long ibis::part::count3DBins<float, unsigned long, long long>(array_t<float> const&, double const&, double const&, double const&, array_t<unsigned long> const&, double const&, double const&, double const&, array_t<long long> const&, double const&, double const&, double const&, std::vector<unsigned int, std::allocator<unsigned int> >&) const
	_ZNK4ibis4part11count3DBinsIfmxEElRK7array_tIT_ERKdS8_S8_RKS2_IT0_ES8_S8_S8_RKS2_IT1_ES8_S8_S8_RSt6vectorIjSaIjEE @ 767
;	long ibis::part::count3DBins<float, long long, float>(array_t<float> const&, double const&, double const&, double const&, array_t<long long> const&, double const&, double const&, double const&, array_t<float> const&, double const&, double const&, double const&, std::vector<unsigned int, std::allocator<unsigned int> >&) const
	_ZNK4ibis4part11count3DBinsIfxfEElRK7array_tIT_ERKdS8_S8_RKS2_IT0_ES8_S8_S8_RKS2_IT1_ES8_S8_S8_RSt6vectorIjSaIjEE @ 768
;	long ibis::part::count3DBins<float, long long, long>(array_t<float> const&, double const&, double const&, double const&, array_t<long long> const&, double const&, double const&, double const&, array_t<long> const&, double const&, double const&, double const&, std::vector<unsigned int, std::allocator<unsigned int> >&) const
	_ZNK4ibis4part11count3DBinsIfxlEElRK7array_tIT_ERKdS8_S8_RKS2_IT0_ES8_S8_S8_RKS2_IT1_ES8_S8_S8_RSt6vectorIjSaIjEE @ 769
;	long ibis::part::count3DBins<float, long long, unsigned long>(array_t<float> const&, double const&, double const&, double const&, array_t<long long> const&, double const&, double const&, double const&, array_t<unsigned long> const&, double const&, double const&, double const&, std::vector<unsigned int, std::allocator<unsigned int> >&) const
	_ZNK4ibis4part11count3DBinsIfxmEElRK7array_tIT_ERKdS8_S8_RKS2_IT0_ES8_S8_S8_RKS2_IT1_ES8_S8_S8_RSt6vectorIjSaIjEE @ 770
;	long ibis::part::count3DBins<float, long long, long long>(array_t<float> const&, double const&, double const&, double const&, array_t<long long> const&, double const&, double const&, double const&, array_t<long long> const&, double const&, double const&, double const&, std::vector<unsigned int, std::allocator<unsigned int> >&) const
	_ZNK4ibis4part11count3DBinsIfxxEElRK7array_tIT_ERKdS8_S8_RKS2_IT0_ES8_S8_S8_RKS2_IT1_ES8_S8_S8_RSt6vectorIjSaIjEE @ 771
;	long ibis::part::count3DBins<long, double, double>(array_t<long> const&, double const&, double const&, double const&, array_t<double> const&, double const&, double const&, double const&, array_t<double> const&, double const&, double const&, double const&, std::vector<unsigned int, std::allocator<unsigned int> >&) const
	_ZNK4ibis4part11count3DBinsIlddEElRK7array_tIT_ERKdS8_S8_RKS2_IT0_ES8_S8_S8_RKS2_IT1_ES8_S8_S8_RSt6vectorIjSaIjEE @ 772
;	long ibis::part::count3DBins<long, double, float>(array_t<long> const&, double const&, double const&, double const&, array_t<double> const&, double const&, double const&, double const&, array_t<float> const&, double const&, double const&, double const&, std::vector<unsigned int, std::allocator<unsigned int> >&) const
	_ZNK4ibis4part11count3DBinsIldfEElRK7array_tIT_ERKdS8_S8_RKS2_IT0_ES8_S8_S8_RKS2_IT1_ES8_S8_S8_RSt6vectorIjSaIjEE @ 773
;	long ibis::part::count3DBins<long, double, long>(array_t<long> const&, double const&, double const&, double const&, array_t<double> const&, double const&, double const&, double const&, array_t<long> const&, double const&, double const&, double const&, std::vector<unsigned int, std::allocator<unsigned int> >&) const
	_ZNK4ibis4part11count3DBinsIldlEElRK7array_tIT_ERKdS8_S8_RKS2_IT0_ES8_S8_S8_RKS2_IT1_ES8_S8_S8_RSt6vectorIjSaIjEE @ 774
;	long ibis::part::count3DBins<long, double, unsigned long>(array_t<long> const&, double const&, double const&, double const&, array_t<double> const&, double const&, double const&, double const&, array_t<unsigned long> const&, double const&, double const&, double const&, std::vector<unsigned int, std::allocator<unsigned int> >&) const
	_ZNK4ibis4part11count3DBinsIldmEElRK7array_tIT_ERKdS8_S8_RKS2_IT0_ES8_S8_S8_RKS2_IT1_ES8_S8_S8_RSt6vectorIjSaIjEE @ 775
;	long ibis::part::count3DBins<long, double, long long>(array_t<long> const&, double const&, double const&, double const&, array_t<double> const&, double const&, double const&, double const&, array_t<long long> const&, double const&, double const&, double const&, std::vector<unsigned int, std::allocator<unsigned int> >&) const
	_ZNK4ibis4part11count3DBinsIldxEElRK7array_tIT_ERKdS8_S8_RKS2_IT0_ES8_S8_S8_RKS2_IT1_ES8_S8_S8_RSt6vectorIjSaIjEE @ 776
;	long ibis::part::count3DBins<long, float, float>(array_t<long> const&, double const&, double const&, double const&, array_t<float> const&, double const&, double const&, double const&, array_t<float> const&, double const&, double const&, double const&, std::vector<unsigned int, std::allocator<unsigned int> >&) const
	_ZNK4ibis4part11count3DBinsIlffEElRK7array_tIT_ERKdS8_S8_RKS2_IT0_ES8_S8_S8_RKS2_IT1_ES8_S8_S8_RSt6vectorIjSaIjEE @ 777
;	long ibis::part::count3DBins<long, float, long>(array_t<long> const&, double const&, double const&, double const&, array_t<float> const&, double const&, double const&, double const&, array_t<long> const&, double const&, double const&, double const&, std::vector<unsigned int, std::allocator<unsigned int> >&) const
	_ZNK4ibis4part11count3DBinsIlflEElRK7array_tIT_ERKdS8_S8_RKS2_IT0_ES8_S8_S8_RKS2_IT1_ES8_S8_S8_RSt6vectorIjSaIjEE @ 778
;	long ibis::part::count3DBins<long, float, unsigned long>(array_t<long> const&, double const&, double const&, double const&, array_t<float> const&, double const&, double const&, double const&, array_t<unsigned long> const&, double const&, double const&, double const&, std::vector<unsigned int, std::allocator<unsigned int> >&) const
	_ZNK4ibis4part11count3DBinsIlfmEElRK7array_tIT_ERKdS8_S8_RKS2_IT0_ES8_S8_S8_RKS2_IT1_ES8_S8_S8_RSt6vectorIjSaIjEE @ 779
;	long ibis::part::count3DBins<long, float, long long>(array_t<long> const&, double const&, double const&, double const&, array_t<float> const&, double const&, double const&, double const&, array_t<long long> const&, double const&, double const&, double const&, std::vector<unsigned int, std::allocator<unsigned int> >&) const
	_ZNK4ibis4part11count3DBinsIlfxEElRK7array_tIT_ERKdS8_S8_RKS2_IT0_ES8_S8_S8_RKS2_IT1_ES8_S8_S8_RSt6vectorIjSaIjEE @ 780
;	long ibis::part::count3DBins<long, long, float>(array_t<long> const&, double const&, double const&, double const&, array_t<long> const&, double const&, double const&, double const&, array_t<float> const&, double const&, double const&, double const&, std::vector<unsigned int, std::allocator<unsigned int> >&) const
	_ZNK4ibis4part11count3DBinsIllfEElRK7array_tIT_ERKdS8_S8_RKS2_IT0_ES8_S8_S8_RKS2_IT1_ES8_S8_S8_RSt6vectorIjSaIjEE @ 781
;	long ibis::part::count3DBins<long, long, long>(array_t<long> const&, double const&, double const&, double const&, array_t<long> const&, double const&, double const&, double const&, array_t<long> const&, double const&, double const&, double const&, std::vector<unsigned int, std::allocator<unsigned int> >&) const
	_ZNK4ibis4part11count3DBinsIlllEElRK7array_tIT_ERKdS8_S8_RKS2_IT0_ES8_S8_S8_RKS2_IT1_ES8_S8_S8_RSt6vectorIjSaIjEE @ 782
;	long ibis::part::count3DBins<long, long, unsigned long>(array_t<long> const&, double const&, double const&, double const&, array_t<long> const&, double const&, double const&, double const&, array_t<unsigned long> const&, double const&, double const&, double const&, std::vector<unsigned int, std::allocator<unsigned int> >&) const
	_ZNK4ibis4part11count3DBinsIllmEElRK7array_tIT_ERKdS8_S8_RKS2_IT0_ES8_S8_S8_RKS2_IT1_ES8_S8_S8_RSt6vectorIjSaIjEE @ 783
;	long ibis::part::count3DBins<long, long, long long>(array_t<long> const&, double const&, double const&, double const&, array_t<long> const&, double const&, double const&, double const&, array_t<long long> const&, double const&, double const&, double const&, std::vector<unsigned int, std::allocator<unsigned int> >&) const
	_ZNK4ibis4part11count3DBinsIllxEElRK7array_tIT_ERKdS8_S8_RKS2_IT0_ES8_S8_S8_RKS2_IT1_ES8_S8_S8_RSt6vectorIjSaIjEE @ 784
;	long ibis::part::count3DBins<long, unsigned long, float>(array_t<long> const&, double const&, double const&, double const&, array_t<unsigned long> const&, double const&, double const&, double const&, array_t<float> const&, double const&, double const&, double const&, std::vector<unsigned int, std::allocator<unsigned int> >&) const
	_ZNK4ibis4part11count3DBinsIlmfEElRK7array_tIT_ERKdS8_S8_RKS2_IT0_ES8_S8_S8_RKS2_IT1_ES8_S8_S8_RSt6vectorIjSaIjEE @ 785
;	long ibis::part::count3DBins<long, unsigned long, long>(array_t<long> const&, double const&, double const&, double const&, array_t<unsigned long> const&, double const&, double const&, double const&, array_t<long> const&, double const&, double const&, double const&, std::vector<unsigned int, std::allocator<unsigned int> >&) const
	_ZNK4ibis4part11count3DBinsIlmlEElRK7array_tIT_ERKdS8_S8_RKS2_IT0_ES8_S8_S8_RKS2_IT1_ES8_S8_S8_RSt6vectorIjSaIjEE @ 786
;	long ibis::part::count3DBins<long, unsigned long, unsigned long>(array_t<long> const&, double const&, double const&, double const&, array_t<unsigned long> const&, double const&, double const&, double const&, array_t<unsigned long> const&, double const&, double const&, double const&, std::vector<unsigned int, std::allocator<unsigned int> >&) const
	_ZNK4ibis4part11count3DBinsIlmmEElRK7array_tIT_ERKdS8_S8_RKS2_IT0_ES8_S8_S8_RKS2_IT1_ES8_S8_S8_RSt6vectorIjSaIjEE @ 787
;	long ibis::part::count3DBins<long, unsigned long, long long>(array_t<long> const&, double const&, double const&, double const&, array_t<unsigned long> const&, double const&, double const&, double const&, array_t<long long> const&, double const&, double const&, double const&, std::vector<unsigned int, std::allocator<unsigned int> >&) const
	_ZNK4ibis4part11count3DBinsIlmxEElRK7array_tIT_ERKdS8_S8_RKS2_IT0_ES8_S8_S8_RKS2_IT1_ES8_S8_S8_RSt6vectorIjSaIjEE @ 788
;	long ibis::part::count3DBins<long, long long, float>(array_t<long> const&, double const&, double const&, double const&, array_t<long long> const&, double const&, double const&, double const&, array_t<float> const&, double const&, double const&, double const&, std::vector<unsigned int, std::allocator<unsigned int> >&) const
	_ZNK4ibis4part11count3DBinsIlxfEElRK7array_tIT_ERKdS8_S8_RKS2_IT0_ES8_S8_S8_RKS2_IT1_ES8_S8_S8_RSt6vectorIjSaIjEE @ 789
;	long ibis::part::count3DBins<long, long long, long>(array_t<long> const&, double const&, double const&, double const&, array_t<long long> const&, double const&, double const&, double const&, array_t<long> const&, double const&, double const&, double const&, std::vector<unsigned int, std::allocator<unsigned int> >&) const
	_ZNK4ibis4part11count3DBinsIlxlEElRK7array_tIT_ERKdS8_S8_RKS2_IT0_ES8_S8_S8_RKS2_IT1_ES8_S8_S8_RSt6vectorIjSaIjEE @ 790
;	long ibis::part::count3DBins<long, long long, unsigned long>(array_t<long> const&, double const&, double const&, double const&, array_t<long long> const&, double const&, double const&, double const&, array_t<unsigned long> const&, double const&, double const&, double const&, std::vector<unsigned int, std::allocator<unsigned int> >&) const
	_ZNK4ibis4part11count3DBinsIlxmEElRK7array_tIT_ERKdS8_S8_RKS2_IT0_ES8_S8_S8_RKS2_IT1_ES8_S8_S8_RSt6vectorIjSaIjEE @ 791
;	long ibis::part::count3DBins<long, long long, long long>(array_t<long> const&, double const&, double const&, double const&, array_t<long long> const&, double const&, double const&, double const&, array_t<long long> const&, double const&, double const&, double const&, std::vector<unsigned int, std::allocator<unsigned int> >&) const
	_ZNK4ibis4part11count3DBinsIlxxEElRK7array_tIT_ERKdS8_S8_RKS2_IT0_ES8_S8_S8_RKS2_IT1_ES8_S8_S8_RSt6vectorIjSaIjEE @ 792
;	long ibis::part::count3DBins<unsigned long, double, double>(array_t<unsigned long> const&, double const&, double const&, double const&, array_t<double> const&, double const&, double const&, double const&, array_t<double> const&, double const&, double const&, double const&, std::vector<unsigned int, std::allocator<unsigned int> >&) const
	_ZNK4ibis4part11count3DBinsImddEElRK7array_tIT_ERKdS8_S8_RKS2_IT0_ES8_S8_S8_RKS2_IT1_ES8_S8_S8_RSt6vectorIjSaIjEE @ 793
;	long ibis::part::count3DBins<unsigned long, double, float>(array_t<unsigned long> const&, double const&, double const&, double const&, array_t<double> const&, double const&, double const&, double const&, array_t<float> const&, double const&, double const&, double const&, std::vector<unsigned int, std::allocator<unsigned int> >&) const
	_ZNK4ibis4part11count3DBinsImdfEElRK7array_tIT_ERKdS8_S8_RKS2_IT0_ES8_S8_S8_RKS2_IT1_ES8_S8_S8_RSt6vectorIjSaIjEE @ 794
;	long ibis::part::count3DBins<unsigned long, double, long>(array_t<unsigned long> const&, double const&, double const&, double const&, array_t<double> const&, double const&, double const&, double const&, array_t<long> const&, double const&, double const&, double const&, std::vector<unsigned int, std::allocator<unsigned int> >&) const
	_ZNK4ibis4part11count3DBinsImdlEElRK7array_tIT_ERKdS8_S8_RKS2_IT0_ES8_S8_S8_RKS2_IT1_ES8_S8_S8_RSt6vectorIjSaIjEE @ 795
;	long ibis::part::count3DBins<unsigned long, double, unsigned long>(array_t<unsigned long> const&, double const&, double const&, double const&, array_t<double> const&, double const&, double const&, double const&, array_t<unsigned long> const&, double const&, double const&, double const&, std::vector<unsigned int, std::allocator<unsigned int> >&) const
	_ZNK4ibis4part11count3DBinsImdmEElRK7array_tIT_ERKdS8_S8_RKS2_IT0_ES8_S8_S8_RKS2_IT1_ES8_S8_S8_RSt6vectorIjSaIjEE @ 796
;	long ibis::part::count3DBins<unsigned long, double, long long>(array_t<unsigned long> const&, double const&, double const&, double const&, array_t<double> const&, double const&, double const&, double const&, array_t<long long> const&, double const&, double const&, double const&, std::vector<unsigned int, std::allocator<unsigned int> >&) const
	_ZNK4ibis4part11count3DBinsImdxEElRK7array_tIT_ERKdS8_S8_RKS2_IT0_ES8_S8_S8_RKS2_IT1_ES8_S8_S8_RSt6vectorIjSaIjEE @ 797
;	long ibis::part::count3DBins<unsigned long, float, float>(array_t<unsigned long> const&, double const&, double const&, double const&, array_t<float> const&, double const&, double const&, double const&, array_t<float> const&, double const&, double const&, double const&, std::vector<unsigned int, std::allocator<unsigned int> >&) const
	_ZNK4ibis4part11count3DBinsImffEElRK7array_tIT_ERKdS8_S8_RKS2_IT0_ES8_S8_S8_RKS2_IT1_ES8_S8_S8_RSt6vectorIjSaIjEE @ 798
;	long ibis::part::count3DBins<unsigned long, float, long>(array_t<unsigned long> const&, double const&, double const&, double const&, array_t<float> const&, double const&, double const&, double const&, array_t<long> const&, double const&, double const&, double const&, std::vector<unsigned int, std::allocator<unsigned int> >&) const
	_ZNK4ibis4part11count3DBinsImflEElRK7array_tIT_ERKdS8_S8_RKS2_IT0_ES8_S8_S8_RKS2_IT1_ES8_S8_S8_RSt6vectorIjSaIjEE @ 799
;	long ibis::part::count3DBins<unsigned long, float, unsigned long>(array_t<unsigned long> const&, double const&, double const&, double const&, array_t<float> const&, double const&, double const&, double const&, array_t<unsigned long> const&, double const&, double const&, double const&, std::vector<unsigned int, std::allocator<unsigned int> >&) const
	_ZNK4ibis4part11count3DBinsImfmEElRK7array_tIT_ERKdS8_S8_RKS2_IT0_ES8_S8_S8_RKS2_IT1_ES8_S8_S8_RSt6vectorIjSaIjEE @ 800
;	long ibis::part::count3DBins<unsigned long, float, long long>(array_t<unsigned long> const&, double const&, double const&, double const&, array_t<float> const&, double const&, double const&, double const&, array_t<long long> const&, double const&, double const&, double const&, std::vector<unsigned int, std::allocator<unsigned int> >&) const
	_ZNK4ibis4part11count3DBinsImfxEElRK7array_tIT_ERKdS8_S8_RKS2_IT0_ES8_S8_S8_RKS2_IT1_ES8_S8_S8_RSt6vectorIjSaIjEE @ 801
;	long ibis::part::count3DBins<unsigned long, long, float>(array_t<unsigned long> const&, double const&, double const&, double const&, array_t<long> const&, double const&, double const&, double const&, array_t<float> const&, double const&, double const&, double const&, std::vector<unsigned int, std::allocator<unsigned int> >&) const
	_ZNK4ibis4part11count3DBinsImlfEElRK7array_tIT_ERKdS8_S8_RKS2_IT0_ES8_S8_S8_RKS2_IT1_ES8_S8_S8_RSt6vectorIjSaIjEE @ 802
;	long ibis::part::count3DBins<unsigned long, long, long>(array_t<unsigned long> const&, double const&, double const&, double const&, array_t<long> const&, double const&, double const&, double const&, array_t<long> const&, double const&, double const&, double const&, std::vector<unsigned int, std::allocator<unsigned int> >&) const
	_ZNK4ibis4part11count3DBinsImllEElRK7array_tIT_ERKdS8_S8_RKS2_IT0_ES8_S8_S8_RKS2_IT1_ES8_S8_S8_RSt6vectorIjSaIjEE @ 803
;	long ibis::part::count3DBins<unsigned long, long, unsigned long>(array_t<unsigned long> const&, double const&, double const&, double const&, array_t<long> const&, double const&, double const&, double const&, array_t<unsigned long> const&, double const&, double const&, double const&, std::vector<unsigned int, std::allocator<unsigned int> >&) const
	_ZNK4ibis4part11count3DBinsImlmEElRK7array_tIT_ERKdS8_S8_RKS2_IT0_ES8_S8_S8_RKS2_IT1_ES8_S8_S8_RSt6vectorIjSaIjEE @ 804
;	long ibis::part::count3DBins<unsigned long, long, long long>(array_t<unsigned long> const&, double const&, double const&, double const&, array_t<long> const&, double const&, double const&, double const&, array_t<long long> const&, double const&, double const&, double const&, std::vector<unsigned int, std::allocator<unsigned int> >&) const
	_ZNK4ibis4part11count3DBinsImlxEElRK7array_tIT_ERKdS8_S8_RKS2_IT0_ES8_S8_S8_RKS2_IT1_ES8_S8_S8_RSt6vectorIjSaIjEE @ 805
;	long ibis::part::count3DBins<unsigned long, unsigned long, float>(array_t<unsigned long> const&, double const&, double const&, double const&, array_t<unsigned long> const&, double const&, double const&, double const&, array_t<float> const&, double const&, double const&, double const&, std::vector<unsigned int, std::allocator<unsigned int> >&) const
	_ZNK4ibis4part11count3DBinsImmfEElRK7array_tIT_ERKdS8_S8_RKS2_IT0_ES8_S8_S8_RKS2_IT1_ES8_S8_S8_RSt6vectorIjSaIjEE @ 806
;	long ibis::part::count3DBins<unsigned long, unsigned long, long>(array_t<unsigned long> const&, double const&, double const&, double const&, array_t<unsigned long> const&, double const&, double const&, double const&, array_t<long> const&, double const&, double const&, double const&, std::vector<unsigned int, std::allocator<unsigned int> >&) const
	_ZNK4ibis4part11count3DBinsImmlEElRK7array_tIT_ERKdS8_S8_RKS2_IT0_ES8_S8_S8_RKS2_IT1_ES8_S8_S8_RSt6vectorIjSaIjEE @ 807
;	long ibis::part::count3DBins<unsigned long, unsigned long, unsigned long>(array_t<unsigned long> const&, double const&, double const&, double const&, array_t<unsigned long> const&, double const&, double const&, double const&, array_t<unsigned long> const&, double const&, double const&, double const&, std::vector<unsigned int, std::allocator<unsigned int> >&) const
	_ZNK4ibis4part11count3DBinsImmmEElRK7array_tIT_ERKdS8_S8_RKS2_IT0_ES8_S8_S8_RKS2_IT1_ES8_S8_S8_RSt6vectorIjSaIjEE @ 808
;	long ibis::part::count3DBins<unsigned long, unsigned long, long long>(array_t<unsigned long> const&, double const&, double const&, double const&, array_t<unsigned long> const&, double const&, double const&, double const&, array_t<long long> const&, double const&, double const&, double const&, std::vector<unsigned int, std::allocator<unsigned int> >&) const
	_ZNK4ibis4part11count3DBinsImmxEElRK7array_tIT_ERKdS8_S8_RKS2_IT0_ES8_S8_S8_RKS2_IT1_ES8_S8_S8_RSt6vectorIjSaIjEE @ 809
;	long ibis::part::count3DBins<unsigned long, long long, float>(array_t<unsigned long> const&, double const&, double const&, double const&, array_t<long long> const&, double const&, double const&, double const&, array_t<float> const&, double const&, double const&, double const&, std::vector<unsigned int, std::allocator<unsigned int> >&) const
	_ZNK4ibis4part11count3DBinsImxfEElRK7array_tIT_ERKdS8_S8_RKS2_IT0_ES8_S8_S8_RKS2_IT1_ES8_S8_S8_RSt6vectorIjSaIjEE @ 810
;	long ibis::part::count3DBins<unsigned long, long long, long>(array_t<unsigned long> const&, double const&, double const&, double const&, array_t<long long> const&, double const&, double const&, double const&, array_t<long> const&, double const&, double const&, double const&, std::vector<unsigned int, std::allocator<unsigned int> >&) const
	_ZNK4ibis4part11count3DBinsImxlEElRK7array_tIT_ERKdS8_S8_RKS2_IT0_ES8_S8_S8_RKS2_IT1_ES8_S8_S8_RSt6vectorIjSaIjEE @ 811
;	long ibis::part::count3DBins<unsigned long, long long, unsigned long>(array_t<unsigned long> const&, double const&, double const&, double const&, array_t<long long> const&, double const&, double const&, double const&, array_t<unsigned long> const&, double const&, double const&, double const&, std::vector<unsigned int, std::allocator<unsigned int> >&) const
	_ZNK4ibis4part11count3DBinsImxmEElRK7array_tIT_ERKdS8_S8_RKS2_IT0_ES8_S8_S8_RKS2_IT1_ES8_S8_S8_RSt6vectorIjSaIjEE @ 812
;	long ibis::part::count3DBins<unsigned long, long long, long long>(array_t<unsigned long> const&, double const&, double const&, double const&, array_t<long long> const&, double const&, double const&, double const&, array_t<long long> const&, double const&, double const&, double const&, std::vector<unsigned int, std::allocator<unsigned int> >&) const
	_ZNK4ibis4part11count3DBinsImxxEElRK7array_tIT_ERKdS8_S8_RKS2_IT0_ES8_S8_S8_RKS2_IT1_ES8_S8_S8_RSt6vectorIjSaIjEE @ 813
;	long ibis::part::count3DBins<long long, double, double>(array_t<long long> const&, double const&, double const&, double const&, array_t<double> const&, double const&, double const&, double const&, array_t<double> const&, double const&, double const&, double const&, std::vector<unsigned int, std::allocator<unsigned int> >&) const
	_ZNK4ibis4part11count3DBinsIxddEElRK7array_tIT_ERKdS8_S8_RKS2_IT0_ES8_S8_S8_RKS2_IT1_ES8_S8_S8_RSt6vectorIjSaIjEE @ 814
;	long ibis::part::count3DBins<long long, double, float>(array_t<long long> const&, double const&, double const&, double const&, array_t<double> const&, double const&, double const&, double const&, array_t<float> const&, double const&, double const&, double const&, std::vector<unsigned int, std::allocator<unsigned int> >&) const
	_ZNK4ibis4part11count3DBinsIxdfEElRK7array_tIT_ERKdS8_S8_RKS2_IT0_ES8_S8_S8_RKS2_IT1_ES8_S8_S8_RSt6vectorIjSaIjEE @ 815
;	long ibis::part::count3DBins<long long, double, long>(array_t<long long> const&, double const&, double const&, double const&, array_t<double> const&, double const&, double const&, double const&, array_t<long> const&, double const&, double const&, double const&, std::vector<unsigned int, std::allocator<unsigned int> >&) const
	_ZNK4ibis4part11count3DBinsIxdlEElRK7array_tIT_ERKdS8_S8_RKS2_IT0_ES8_S8_S8_RKS2_IT1_ES8_S8_S8_RSt6vectorIjSaIjEE @ 816
;	long ibis::part::count3DBins<long long, double, unsigned long>(array_t<long long> const&, double const&, double const&, double const&, array_t<double> const&, double const&, double const&, double const&, array_t<unsigned long> const&, double const&, double const&, double const&, std::vector<unsigned int, std::allocator<unsigned int> >&) const
	_ZNK4ibis4part11count3DBinsIxdmEElRK7array_tIT_ERKdS8_S8_RKS2_IT0_ES8_S8_S8_RKS2_IT1_ES8_S8_S8_RSt6vectorIjSaIjEE @ 817
;	long ibis::part::count3DBins<long long, double, long long>(array_t<long long> const&, double const&, double const&, double const&, array_t<double> const&, double const&, double const&, double const&, array_t<long long> const&, double const&, double const&, double const&, std::vector<unsigned int, std::allocator<unsigned int> >&) const
	_ZNK4ibis4part11count3DBinsIxdxEElRK7array_tIT_ERKdS8_S8_RKS2_IT0_ES8_S8_S8_RKS2_IT1_ES8_S8_S8_RSt6vectorIjSaIjEE @ 818
;	long ibis::part::count3DBins<long long, float, float>(array_t<long long> const&, double const&, double const&, double const&, array_t<float> const&, double const&, double const&, double const&, array_t<float> const&, double const&, double const&, double const&, std::vector<unsigned int, std::allocator<unsigned int> >&) const
	_ZNK4ibis4part11count3DBinsIxffEElRK7array_tIT_ERKdS8_S8_RKS2_IT0_ES8_S8_S8_RKS2_IT1_ES8_S8_S8_RSt6vectorIjSaIjEE @ 819
;	long ibis::part::count3DBins<long long, float, long>(array_t<long long> const&, double const&, double const&, double const&, array_t<float> const&, double const&, double const&, double const&, array_t<long> const&, double const&, double const&, double const&, std::vector<unsigned int, std::allocator<unsigned int> >&) const
	_ZNK4ibis4part11count3DBinsIxflEElRK7array_tIT_ERKdS8_S8_RKS2_IT0_ES8_S8_S8_RKS2_IT1_ES8_S8_S8_RSt6vectorIjSaIjEE @ 820
;	long ibis::part::count3DBins<long long, float, unsigned long>(array_t<long long> const&, double const&, double const&, double const&, array_t<float> const&, double const&, double const&, double const&, array_t<unsigned long> const&, double const&, double const&, double const&, std::vector<unsigned int, std::allocator<unsigned int> >&) const
	_ZNK4ibis4part11count3DBinsIxfmEElRK7array_tIT_ERKdS8_S8_RKS2_IT0_ES8_S8_S8_RKS2_IT1_ES8_S8_S8_RSt6vectorIjSaIjEE @ 821
;	long ibis::part::count3DBins<long long, float, long long>(array_t<long long> const&, double const&, double const&, double const&, array_t<float> const&, double const&, double const&, double const&, array_t<long long> const&, double const&, double const&, double const&, std::vector<unsigned int, std::allocator<unsigned int> >&) const
	_ZNK4ibis4part11count3DBinsIxfxEElRK7array_tIT_ERKdS8_S8_RKS2_IT0_ES8_S8_S8_RKS2_IT1_ES8_S8_S8_RSt6vectorIjSaIjEE @ 822
;	long ibis::part::count3DBins<long long, long, float>(array_t<long long> const&, double const&, double const&, double const&, array_t<long> const&, double const&, double const&, double const&, array_t<float> const&, double const&, double const&, double const&, std::vector<unsigned int, std::allocator<unsigned int> >&) const
	_ZNK4ibis4part11count3DBinsIxlfEElRK7array_tIT_ERKdS8_S8_RKS2_IT0_ES8_S8_S8_RKS2_IT1_ES8_S8_S8_RSt6vectorIjSaIjEE @ 823
;	long ibis::part::count3DBins<long long, long, long>(array_t<long long> const&, double const&, double const&, double const&, array_t<long> const&, double const&, double const&, double const&, array_t<long> const&, double const&, double const&, double const&, std::vector<unsigned int, std::allocator<unsigned int> >&) const
	_ZNK4ibis4part11count3DBinsIxllEElRK7array_tIT_ERKdS8_S8_RKS2_IT0_ES8_S8_S8_RKS2_IT1_ES8_S8_S8_RSt6vectorIjSaIjEE @ 824
;	long ibis::part::count3DBins<long long, long, unsigned long>(array_t<long long> const&, double const&, double const&, double const&, array_t<long> const&, double const&, double const&, double const&, array_t<unsigned long> const&, double const&, double const&, double const&, std::vector<unsigned int, std::allocator<unsigned int> >&) const
	_ZNK4ibis4part11count3DBinsIxlmEElRK7array_tIT_ERKdS8_S8_RKS2_IT0_ES8_S8_S8_RKS2_IT1_ES8_S8_S8_RSt6vectorIjSaIjEE @ 825
;	long ibis::part::count3DBins<long long, long, long long>(array_t<long long> const&, double const&, double const&, double const&, array_t<long> const&, double const&, double const&, double const&, array_t<long long> const&, double const&, double const&, double const&, std::vector<unsigned int, std::allocator<unsigned int> >&) const
	_ZNK4ibis4part11count3DBinsIxlxEElRK7array_tIT_ERKdS8_S8_RKS2_IT0_ES8_S8_S8_RKS2_IT1_ES8_S8_S8_RSt6vectorIjSaIjEE @ 826
;	long ibis::part::count3DBins<long long, unsigned long, float>(array_t<long long> const&, double const&, double const&, double const&, array_t<unsigned long> const&, double const&, double const&, double const&, array_t<float> const&, double const&, double const&, double const&, std::vector<unsigned int, std::allocator<unsigned int> >&) const
	_ZNK4ibis4part11count3DBinsIxmfEElRK7array_tIT_ERKdS8_S8_RKS2_IT0_ES8_S8_S8_RKS2_IT1_ES8_S8_S8_RSt6vectorIjSaIjEE @ 827
;	long ibis::part::count3DBins<long long, unsigned long, long>(array_t<long long> const&, double const&, double const&, double const&, array_t<unsigned long> const&, double const&, double const&, double const&, array_t<long> const&, double const&, double const&, double const&, std::vector<unsigned int, std::allocator<unsigned int> >&) const
	_ZNK4ibis4part11count3DBinsIxmlEElRK7array_tIT_ERKdS8_S8_RKS2_IT0_ES8_S8_S8_RKS2_IT1_ES8_S8_S8_RSt6vectorIjSaIjEE @ 828
;	long ibis::part::count3DBins<long long, unsigned long, unsigned long>(array_t<long long> const&, double const&, double const&, double const&, array_t<unsigned long> const&, double const&, double const&, double const&, array_t<unsigned long> const&, double const&, double const&, double const&, std::vector<unsigned int, std::allocator<unsigned int> >&) const
	_ZNK4ibis4part11count3DBinsIxmmEElRK7array_tIT_ERKdS8_S8_RKS2_IT0_ES8_S8_S8_RKS2_IT1_ES8_S8_S8_RSt6vectorIjSaIjEE @ 829
;	long ibis::part::count3DBins<long long, unsigned long, long long>(array_t<long long> const&, double const&, double const&, double const&, array_t<unsigned long> const&, double const&, double const&, double const&, array_t<long long> const&, double const&, double const&, double const&, std::vector<unsigned int, std::allocator<unsigned int> >&) const
	_ZNK4ibis4part11count3DBinsIxmxEElRK7array_tIT_ERKdS8_S8_RKS2_IT0_ES8_S8_S8_RKS2_IT1_ES8_S8_S8_RSt6vectorIjSaIjEE @ 830
;	long ibis::part::count3DBins<long long, long long, float>(array_t<long long> const&, double const&, double const&, double const&, array_t<long long> const&, double const&, double const&, double const&, array_t<float> const&, double const&, double const&, double const&, std::vector<unsigned int, std::allocator<unsigned int> >&) const
	_ZNK4ibis4part11count3DBinsIxxfEElRK7array_tIT_ERKdS8_S8_RKS2_IT0_ES8_S8_S8_RKS2_IT1_ES8_S8_S8_RSt6vectorIjSaIjEE @ 831
;	long ibis::part::count3DBins<long long, long long, long>(array_t<long long> const&, double const&, double const&, double const&, array_t<long long> const&, double const&, double const&, double const&, array_t<long> const&, double const&, double const&, double const&, std::vector<unsigned int, std::allocator<unsigned int> >&) const
	_ZNK4ibis4part11count3DBinsIxxlEElRK7array_tIT_ERKdS8_S8_RKS2_IT0_ES8_S8_S8_RKS2_IT1_ES8_S8_S8_RSt6vectorIjSaIjEE @ 832
;	long ibis::part::count3DBins<long long, long long, unsigned long>(array_t<long long> const&, double const&, double const&, double const&, array_t<long long> const&, double const&, double const&, double const&, array_t<unsigned long> const&, double const&, double const&, double const&, std::vector<unsigned int, std::allocator<unsigned int> >&) const
	_ZNK4ibis4part11count3DBinsIxxmEElRK7array_tIT_ERKdS8_S8_RKS2_IT0_ES8_S8_S8_RKS2_IT1_ES8_S8_S8_RSt6vectorIjSaIjEE @ 833
;	long ibis::part::count3DBins<long long, long long, long long>(array_t<long long> const&, double const&, double const&, double const&, array_t<long long> const&, double const&, double const&, double const&, array_t<long long> const&, double const&, double const&, double const&, std::vector<unsigned int, std::allocator<unsigned int> >&) const
	_ZNK4ibis4part11count3DBinsIxxxEElRK7array_tIT_ERKdS8_S8_RKS2_IT0_ES8_S8_S8_RKS2_IT1_ES8_S8_S8_RSt6vectorIjSaIjEE @ 834
;	ibis::part::selectLongs(char const*, ibis::bitvector const&) const
	_ZNK4ibis4part11selectLongsEPKcRKNS_9bitvectorE @ 835
;	ibis::part::selectUInts(char const*, ibis::bitvector const&) const
	_ZNK4ibis4part11selectUIntsEPKcRKNS_9bitvectorE @ 836
;	ibis::part::unloadIndex() const
	_ZNK4ibis4part11unloadIndexEv @ 837
;	ibis::part::combineNames(std::map<char const*, ibis::TYPE_T, ibis::lessi, std::allocator<std::pair<char const* const, ibis::TYPE_T> > >&) const
	_ZNK4ibis4part12combineNamesERSt3mapIPKcNS_6TYPE_TENS_5lessiESaISt4pairIKS3_S4_EEE @ 838
;	ibis::part::compJoinLoop(ibis::rangeJoin const&, ibis::bitvector const&) const
	_ZNK4ibis4part12compJoinLoopERKNS_9rangeJoinERKNS_9bitvectorE @ 839
;	ibis::part::compJoinLoop(ibis::rangeJoin const&, ibis::bitvector const&, ibis::bitvector64&) const
	_ZNK4ibis4part12compJoinLoopERKNS_9rangeJoinERKNS_9bitvectorERNS_11bitvector64E @ 840
;	ibis::part::doIntCompare(char const*, ibis::bitvector const&, ibis::bitvector&, ibis::qRange const&) const
	_ZNK4ibis4part12doIntCompareEPKcRKNS_9bitvectorERS3_RKNS_6qRangeE @ 841
;	ibis::part::estimateCost(ibis::qMultiString const&) const
	_ZNK4ibis4part12estimateCostERKNS_12qMultiStringE @ 842
;	ibis::part::estimateCost(ibis::qDiscreteRange const&) const
	_ZNK4ibis4part12estimateCostERKNS_14qDiscreteRangeE @ 843
;	ibis::part::estimateCost(ibis::qContinuousRange const&) const
	_ZNK4ibis4part12estimateCostERKNS_16qContinuousRangeE @ 844
;	ibis::part::estimateCost(ibis::qString const&) const
	_ZNK4ibis4part12estimateCostERKNS_7qStringE @ 845
;	ibis::part::evaluateJoin(ibis::rangeJoin const&, ibis::bitvector64 const&, ibis::bitvector64&) const
	_ZNK4ibis4part12evaluateJoinERKNS_9rangeJoinERKNS_11bitvector64ERS4_ @ 846
;	ibis::part::evaluateJoin(std::vector<ibis::rangeJoin const*, std::allocator<ibis::rangeJoin const*> > const&, ibis::bitvector64 const&, ibis::bitvector64&) const
	_ZNK4ibis4part12evaluateJoinERKSt6vectorIPKNS_9rangeJoinESaIS4_EERKNS_11bitvector64ERS9_ @ 847
;	ibis::part::evaluateJoin(std::vector<ibis::rangeJoin const*, std::allocator<ibis::rangeJoin const*> > const&, ibis::bitvector const&) const
	_ZNK4ibis4part12evaluateJoinERKSt6vectorIPKNS_9rangeJoinESaIS4_EERKNS_9bitvectorE @ 848
;	ibis::part::getActualMax(char const*) const
	_ZNK4ibis4part12getActualMaxEPKc @ 849
;	ibis::part::getActualMin(char const*) const
	_ZNK4ibis4part12getActualMinEPKc @ 850
;	ibis::part::getColumnSum(char const*) const
	_ZNK4ibis4part12getColumnSumEPKc @ 851
;	ibis::part::getRowNumber(ibis::rid_t const&) const
	_ZNK4ibis4part12getRowNumberERKNS_5rid_tE @ 852
;	ibis::part::negativeScan(ibis::qRange const&, ibis::bitvector const&, ibis::bitvector&) const
	_ZNK4ibis4part12negativeScanERKNS_6qRangeERKNS_9bitvectorERS4_ @ 853
;	ibis::part::selectFloats(char const*, ibis::bitvector const&) const
	_ZNK4ibis4part12selectFloatsEPKcRKNS_9bitvectorE @ 854
;	ibis::part::doByteCompare(char const*, ibis::bitvector const&, ibis::bitvector&, ibis::qRange const&) const
	_ZNK4ibis4part13doByteCompareEPKcRKNS_9bitvectorERS3_RKNS_6qRangeE @ 855
;	ibis::part::doUIntCompare(char const*, ibis::bitvector const&, ibis::bitvector&, ibis::qRange const&) const
	_ZNK4ibis4part13doUIntCompareEPKcRKNS_9bitvectorERS3_RKNS_6qRangeE @ 856
;	ibis::part::equiJoinLoop1(ibis::rangeJoin const&, ibis::bitvector const&) const
	_ZNK4ibis4part13equiJoinLoop1ERKNS_9rangeJoinERKNS_9bitvectorE @ 857
;	ibis::part::equiJoinLoop1(ibis::rangeJoin const&, ibis::bitvector const&, ibis::bitvector64&) const
	_ZNK4ibis4part13equiJoinLoop1ERKNS_9rangeJoinERKNS_9bitvectorERNS_11bitvector64E @ 858
;	ibis::part::equiJoinLoop2(ibis::rangeJoin const&, ibis::bitvector const&) const
	_ZNK4ibis4part13equiJoinLoop2ERKNS_9rangeJoinERKNS_9bitvectorE @ 859
;	ibis::part::equiJoinLoop2(ibis::rangeJoin const&, ibis::bitvector const&, ibis::bitvector64&) const
	_ZNK4ibis4part13equiJoinLoop2ERKNS_9rangeJoinERKNS_9bitvectorERNS_11bitvector64E @ 860
;	ibis::part::estimateRange(ibis::qDiscreteRange const&) const
	_ZNK4ibis4part13estimateRangeERKNS_14qDiscreteRangeE @ 861
;	ibis::part::estimateRange(ibis::qDiscreteRange const&, ibis::bitvector&, ibis::bitvector&) const
	_ZNK4ibis4part13estimateRangeERKNS_14qDiscreteRangeERNS_9bitvectorES5_ @ 862
;	ibis::part::estimateRange(ibis::qContinuousRange const&) const
	_ZNK4ibis4part13estimateRangeERKNS_16qContinuousRangeE @ 863
;	ibis::part::estimateRange(ibis::qContinuousRange const&, ibis::bitvector&, ibis::bitvector&) const
	_ZNK4ibis4part13estimateRangeERKNS_16qContinuousRangeERNS_9bitvectorES5_ @ 864
;	ibis::part::evaluateRange(ibis::qDiscreteRange const&, ibis::bitvector const&, ibis::bitvector&) const
	_ZNK4ibis4part13evaluateRangeERKNS_14qDiscreteRangeERKNS_9bitvectorERS4_ @ 865
;	ibis::part::evaluateRange(ibis::qContinuousRange const&, ibis::bitvector const&, ibis::bitvector&) const
	_ZNK4ibis4part13evaluateRangeERKNS_16qContinuousRangeERKNS_9bitvectorERS4_ @ 866
;	ibis::part::lookforString(ibis::qMultiString const&) const
	_ZNK4ibis4part13lookforStringERKNS_12qMultiStringE @ 867
;	ibis::part::lookforString(ibis::qMultiString const&, ibis::bitvector&) const
	_ZNK4ibis4part13lookforStringERKNS_12qMultiStringERNS_9bitvectorE @ 868
;	ibis::part::lookforString(ibis::qString const&) const
	_ZNK4ibis4part13lookforStringERKNS_7qStringE @ 869
;	ibis::part::lookforString(ibis::qString const&, ibis::bitvector&) const
	_ZNK4ibis4part13lookforStringERKNS_7qStringERNS_9bitvectorE @ 870
;	ibis::part::matchMetaTags(std::map<char const*, char*, ibis::lessi, std::allocator<std::pair<char const* const, char*> > > const&) const
	_ZNK4ibis4part13matchMetaTagsERKSt3mapIPKcPcNS_5lessiESaISt4pairIKS3_S4_EEE @ 871
;	ibis::part::matchMetaTags(std::vector<char const*, std::allocator<char const*> > const&) const
	_ZNK4ibis4part13matchMetaTagsERKSt6vectorIPKcSaIS3_EE @ 872
;	ibis::part::rangeJoinLoop(ibis::rangeJoin const&, ibis::bitvector const&) const
	_ZNK4ibis4part13rangeJoinLoopERKNS_9rangeJoinERKNS_9bitvectorE @ 873
;	ibis::part::rangeJoinLoop(ibis::rangeJoin const&, ibis::bitvector const&, ibis::bitvector64&) const
	_ZNK4ibis4part13rangeJoinLoopERKNS_9rangeJoinERKNS_9bitvectorERNS_11bitvector64E @ 874
;	void ibis::part::rangeJoinLoop<double, double>(array_t<double> const&, ibis::bitvector const&, array_t<double> const&, ibis::bitvector const&, double, ibis::bitvector64&) const
	_ZNK4ibis4part13rangeJoinLoopIddEEvRK7array_tIT_ERKNS_9bitvectorERKS2_IT0_ES9_dRNS_11bitvector64E @ 875
;	long long ibis::part::rangeJoinLoop<double, double>(array_t<double> const&, ibis::bitvector const&, array_t<double> const&, ibis::bitvector const&, double) const
	_ZNK4ibis4part13rangeJoinLoopIddEExRK7array_tIT_ERKNS_9bitvectorERKS2_IT0_ES9_d @ 876
;	void ibis::part::rangeJoinLoop<double, float>(array_t<double> const&, ibis::bitvector const&, array_t<float> const&, ibis::bitvector const&, double, ibis::bitvector64&) const
	_ZNK4ibis4part13rangeJoinLoopIdfEEvRK7array_tIT_ERKNS_9bitvectorERKS2_IT0_ES9_dRNS_11bitvector64E @ 877
;	long long ibis::part::rangeJoinLoop<double, float>(array_t<double> const&, ibis::bitvector const&, array_t<float> const&, ibis::bitvector const&, double) const
	_ZNK4ibis4part13rangeJoinLoopIdfEExRK7array_tIT_ERKNS_9bitvectorERKS2_IT0_ES9_d @ 878
;	void ibis::part::rangeJoinLoop<double, long>(array_t<double> const&, ibis::bitvector const&, array_t<long> const&, ibis::bitvector const&, double, ibis::bitvector64&) const
	_ZNK4ibis4part13rangeJoinLoopIdlEEvRK7array_tIT_ERKNS_9bitvectorERKS2_IT0_ES9_dRNS_11bitvector64E @ 879
;	long long ibis::part::rangeJoinLoop<double, long>(array_t<double> const&, ibis::bitvector const&, array_t<long> const&, ibis::bitvector const&, double) const
	_ZNK4ibis4part13rangeJoinLoopIdlEExRK7array_tIT_ERKNS_9bitvectorERKS2_IT0_ES9_d @ 880
;	void ibis::part::rangeJoinLoop<double, unsigned long>(array_t<double> const&, ibis::bitvector const&, array_t<unsigned long> const&, ibis::bitvector const&, double, ibis::bitvector64&) const
	_ZNK4ibis4part13rangeJoinLoopIdmEEvRK7array_tIT_ERKNS_9bitvectorERKS2_IT0_ES9_dRNS_11bitvector64E @ 881
;	long long ibis::part::rangeJoinLoop<double, unsigned long>(array_t<double> const&, ibis::bitvector const&, array_t<unsigned long> const&, ibis::bitvector const&, double) const
	_ZNK4ibis4part13rangeJoinLoopIdmEExRK7array_tIT_ERKNS_9bitvectorERKS2_IT0_ES9_d @ 882
;	void ibis::part::rangeJoinLoop<float, double>(array_t<float> const&, ibis::bitvector const&, array_t<double> const&, ibis::bitvector const&, double, ibis::bitvector64&) const
	_ZNK4ibis4part13rangeJoinLoopIfdEEvRK7array_tIT_ERKNS_9bitvectorERKS2_IT0_ES9_dRNS_11bitvector64E @ 883
;	long long ibis::part::rangeJoinLoop<float, double>(array_t<float> const&, ibis::bitvector const&, array_t<double> const&, ibis::bitvector const&, double) const
	_ZNK4ibis4part13rangeJoinLoopIfdEExRK7array_tIT_ERKNS_9bitvectorERKS2_IT0_ES9_d @ 884
;	void ibis::part::rangeJoinLoop<float, float>(array_t<float> const&, ibis::bitvector const&, array_t<float> const&, ibis::bitvector const&, double, ibis::bitvector64&) const
	_ZNK4ibis4part13rangeJoinLoopIffEEvRK7array_tIT_ERKNS_9bitvectorERKS2_IT0_ES9_dRNS_11bitvector64E @ 885
;	long long ibis::part::rangeJoinLoop<float, float>(array_t<float> const&, ibis::bitvector const&, array_t<float> const&, ibis::bitvector const&, double) const
	_ZNK4ibis4part13rangeJoinLoopIffEExRK7array_tIT_ERKNS_9bitvectorERKS2_IT0_ES9_d @ 886
;	void ibis::part::rangeJoinLoop<float, long>(array_t<float> const&, ibis::bitvector const&, array_t<long> const&, ibis::bitvector const&, double, ibis::bitvector64&) const
	_ZNK4ibis4part13rangeJoinLoopIflEEvRK7array_tIT_ERKNS_9bitvectorERKS2_IT0_ES9_dRNS_11bitvector64E @ 887
;	long long ibis::part::rangeJoinLoop<float, long>(array_t<float> const&, ibis::bitvector const&, array_t<long> const&, ibis::bitvector const&, double) const
	_ZNK4ibis4part13rangeJoinLoopIflEExRK7array_tIT_ERKNS_9bitvectorERKS2_IT0_ES9_d @ 888
;	void ibis::part::rangeJoinLoop<float, unsigned long>(array_t<float> const&, ibis::bitvector const&, array_t<unsigned long> const&, ibis::bitvector const&, double, ibis::bitvector64&) const
	_ZNK4ibis4part13rangeJoinLoopIfmEEvRK7array_tIT_ERKNS_9bitvectorERKS2_IT0_ES9_dRNS_11bitvector64E @ 889
;	long long ibis::part::rangeJoinLoop<float, unsigned long>(array_t<float> const&, ibis::bitvector const&, array_t<unsigned long> const&, ibis::bitvector const&, double) const
	_ZNK4ibis4part13rangeJoinLoopIfmEExRK7array_tIT_ERKNS_9bitvectorERKS2_IT0_ES9_d @ 890
;	void ibis::part::rangeJoinLoop<long, double>(array_t<long> const&, ibis::bitvector const&, array_t<double> const&, ibis::bitvector const&, double, ibis::bitvector64&) const
	_ZNK4ibis4part13rangeJoinLoopIldEEvRK7array_tIT_ERKNS_9bitvectorERKS2_IT0_ES9_dRNS_11bitvector64E @ 891
;	long long ibis::part::rangeJoinLoop<long, double>(array_t<long> const&, ibis::bitvector const&, array_t<double> const&, ibis::bitvector const&, double) const
	_ZNK4ibis4part13rangeJoinLoopIldEExRK7array_tIT_ERKNS_9bitvectorERKS2_IT0_ES9_d @ 892
;	void ibis::part::rangeJoinLoop<long, float>(array_t<long> const&, ibis::bitvector const&, array_t<float> const&, ibis::bitvector const&, double, ibis::bitvector64&) const
	_ZNK4ibis4part13rangeJoinLoopIlfEEvRK7array_tIT_ERKNS_9bitvectorERKS2_IT0_ES9_dRNS_11bitvector64E @ 893
;	long long ibis::part::rangeJoinLoop<long, float>(array_t<long> const&, ibis::bitvector const&, array_t<float> const&, ibis::bitvector const&, double) const
	_ZNK4ibis4part13rangeJoinLoopIlfEExRK7array_tIT_ERKNS_9bitvectorERKS2_IT0_ES9_d @ 894
;	void ibis::part::rangeJoinLoop<long, long>(array_t<long> const&, ibis::bitvector const&, array_t<long> const&, ibis::bitvector const&, double, ibis::bitvector64&) const
	_ZNK4ibis4part13rangeJoinLoopIllEEvRK7array_tIT_ERKNS_9bitvectorERKS2_IT0_ES9_dRNS_11bitvector64E @ 895
;	long long ibis::part::rangeJoinLoop<long, long>(array_t<long> const&, ibis::bitvector const&, array_t<long> const&, ibis::bitvector const&, double) const
	_ZNK4ibis4part13rangeJoinLoopIllEExRK7array_tIT_ERKNS_9bitvectorERKS2_IT0_ES9_d @ 896
;	void ibis::part::rangeJoinLoop<long, unsigned long>(array_t<long> const&, ibis::bitvector const&, array_t<unsigned long> const&, ibis::bitvector const&, double, ibis::bitvector64&) const
	_ZNK4ibis4part13rangeJoinLoopIlmEEvRK7array_tIT_ERKNS_9bitvectorERKS2_IT0_ES9_dRNS_11bitvector64E @ 897
;	long long ibis::part::rangeJoinLoop<long, unsigned long>(array_t<long> const&, ibis::bitvector const&, array_t<unsigned long> const&, ibis::bitvector const&, double) const
	_ZNK4ibis4part13rangeJoinLoopIlmEExRK7array_tIT_ERKNS_9bitvectorERKS2_IT0_ES9_d @ 898
;	void ibis::part::rangeJoinLoop<unsigned long, double>(array_t<unsigned long> const&, ibis::bitvector const&, array_t<double> const&, ibis::bitvector const&, double, ibis::bitvector64&) const
	_ZNK4ibis4part13rangeJoinLoopImdEEvRK7array_tIT_ERKNS_9bitvectorERKS2_IT0_ES9_dRNS_11bitvector64E @ 899
;	long long ibis::part::rangeJoinLoop<unsigned long, double>(array_t<unsigned long> const&, ibis::bitvector const&, array_t<double> const&, ibis::bitvector const&, double) const
	_ZNK4ibis4part13rangeJoinLoopImdEExRK7array_tIT_ERKNS_9bitvectorERKS2_IT0_ES9_d @ 900
;	void ibis::part::rangeJoinLoop<unsigned long, float>(array_t<unsigned long> const&, ibis::bitvector const&, array_t<float> const&, ibis::bitvector const&, double, ibis::bitvector64&) const
	_ZNK4ibis4part13rangeJoinLoopImfEEvRK7array_tIT_ERKNS_9bitvectorERKS2_IT0_ES9_dRNS_11bitvector64E @ 901
;	long long ibis::part::rangeJoinLoop<unsigned long, float>(array_t<unsigned long> const&, ibis::bitvector const&, array_t<float> const&, ibis::bitvector const&, double) const
	_ZNK4ibis4part13rangeJoinLoopImfEExRK7array_tIT_ERKNS_9bitvectorERKS2_IT0_ES9_d @ 902
;	void ibis::part::rangeJoinLoop<unsigned long, long>(array_t<unsigned long> const&, ibis::bitvector const&, array_t<long> const&, ibis::bitvector const&, double, ibis::bitvector64&) const
	_ZNK4ibis4part13rangeJoinLoopImlEEvRK7array_tIT_ERKNS_9bitvectorERKS2_IT0_ES9_dRNS_11bitvector64E @ 903
;	long long ibis::part::rangeJoinLoop<unsigned long, long>(array_t<unsigned long> const&, ibis::bitvector const&, array_t<long> const&, ibis::bitvector const&, double) const
	_ZNK4ibis4part13rangeJoinLoopImlEExRK7array_tIT_ERKNS_9bitvectorERKS2_IT0_ES9_d @ 904
;	void ibis::part::rangeJoinLoop<unsigned long, unsigned long>(array_t<unsigned long> const&, ibis::bitvector const&, array_t<unsigned long> const&, ibis::bitvector const&, double, ibis::bitvector64&) const
	_ZNK4ibis4part13rangeJoinLoopImmEEvRK7array_tIT_ERKNS_9bitvectorERKS2_IT0_ES9_dRNS_11bitvector64E @ 905
;	long long ibis::part::rangeJoinLoop<unsigned long, unsigned long>(array_t<unsigned long> const&, ibis::bitvector const&, array_t<unsigned long> const&, ibis::bitvector const&, double) const
	_ZNK4ibis4part13rangeJoinLoopImmEExRK7array_tIT_ERKNS_9bitvectorERKS2_IT0_ES9_d @ 906
;	ibis::part::releaseAccess(char const*) const
	_ZNK4ibis4part13releaseAccessEPKc @ 907
;	ibis::part::selectDoubles(char const*, ibis::bitvector const&) const
	_ZNK4ibis4part13selectDoublesEPKcRKNS_9bitvectorE @ 908
;	ibis::part::doFloatCompare(char const*, ibis::bitvector const&, ibis::bitvector&, ibis::qRange const&) const
	_ZNK4ibis4part14doFloatCompareEPKcRKNS_9bitvectorERS3_RKNS_6qRangeE @ 909
;	ibis::part::doShortCompare(char const*, ibis::bitvector const&, ibis::bitvector&, ibis::qRange const&) const
	_ZNK4ibis4part14doShortCompareEPKcRKNS_9bitvectorERS3_RKNS_6qRangeE @ 910
;	ibis::part::doUByteCompare(char const*, ibis::bitvector const&, ibis::bitvector&, ibis::qRange const&) const
	_ZNK4ibis4part14doUByteCompareEPKcRKNS_9bitvectorERS3_RKNS_6qRangeE @ 911
;	ibis::part::evaluateRIDSet(array_t<ibis::rid_t> const&, ibis::bitvector&) const
	_ZNK4ibis4part14evaluateRIDSetERK7array_tINS_5rid_tEERNS_9bitvectorE @ 912
;	ibis::part::gainReadAccess(char const*) const
	_ZNK4ibis4part14gainReadAccessEPKc @ 913
;	ibis::part::getUndecidable(ibis::qDiscreteRange const&, ibis::bitvector&) const
	_ZNK4ibis4part14getUndecidableERKNS_14qDiscreteRangeERNS_9bitvectorE @ 914
;	ibis::part::getUndecidable(ibis::qContinuousRange const&, ibis::bitvector&) const
	_ZNK4ibis4part14getUndecidableERKNS_16qContinuousRangeERNS_9bitvectorE @ 915
;	ibis::part::recursiveQuery(char const*, ibis::column const*, double, double, long*) const
	_ZNK4ibis4part14recursiveQueryEPKcPKNS_6columnEddPl @ 916
;	ibis::part::doDoubleCompare(char const*, ibis::bitvector const&, ibis::bitvector&, ibis::qRange const&) const
	_ZNK4ibis4part15doDoubleCompareEPKcRKNS_9bitvectorERS3_RKNS_6qRangeE @ 917
;	ibis::part::doUShortCompare(char const*, ibis::bitvector const&, ibis::bitvector&, ibis::qRange const&) const
	_ZNK4ibis4part15doUShortCompareEPKcRKNS_9bitvectorERS3_RKNS_6qRangeE @ 918
;	ibis::part::gainWriteAccess(char const*) const
	_ZNK4ibis4part15gainWriteAccessEPKc @ 919
;	ibis::part::getDistribution(char const*, std::vector<double, std::allocator<double> >&, std::vector<unsigned long, std::allocator<unsigned long> >&) const
	_ZNK4ibis4part15getDistributionEPKcRSt6vectorIdSaIdEERS3_ImSaImEE @ 920
;	ibis::part::getDistribution(char const*, char const*, std::vector<double, std::allocator<double> >&, std::vector<unsigned long, std::allocator<unsigned long> >&) const
	_ZNK4ibis4part15getDistributionEPKcS2_RSt6vectorIdSaIdEERS3_ImSaImEE @ 921
;	ibis::part::getDistribution(char const*, char const*, unsigned long, double*, unsigned long*) const
	_ZNK4ibis4part15getDistributionEPKcS2_mPdPm @ 922
;	ibis::part::getDistribution(char const*, unsigned long, double*, unsigned long*) const
	_ZNK4ibis4part15getDistributionEPKcmPdPm @ 923
;	ibis::part::negativeCompare(array_t<double> const&, ibis::bitvector const&, ibis::bitvector&, ibis::qRange const&) const
	_ZNK4ibis4part15negativeCompareERK7array_tIdERKNS_9bitvectorERS5_RKNS_6qRangeE @ 924
;	ibis::part::negativeCompare(array_t<float> const&, ibis::bitvector const&, ibis::bitvector&, ibis::qRange const&) const
	_ZNK4ibis4part15negativeCompareERK7array_tIfERKNS_9bitvectorERS5_RKNS_6qRangeE @ 925
;	ibis::part::negativeCompare(array_t<long> const&, ibis::bitvector const&, ibis::bitvector&, ibis::qRange const&) const
	_ZNK4ibis4part15negativeCompareERK7array_tIlERKNS_9bitvectorERS5_RKNS_6qRangeE @ 926
;	ibis::part::negativeCompare(array_t<unsigned long> const&, ibis::bitvector const&, ibis::bitvector&, ibis::qRange const&) const
	_ZNK4ibis4part15negativeCompareERK7array_tImERKNS_9bitvectorERS5_RKNS_6qRangeE @ 927
;	void ibis::part::negativeCompare<signed char>(char const*, ibis::bitvector const&, ibis::bitvector&, ibis::qRange const&) const
	_ZNK4ibis4part15negativeCompareIaEEvPKcRKNS_9bitvectorERS4_RKNS_6qRangeE @ 928
;	void ibis::part::negativeCompare<signed char>(array_t<signed char> const&, ibis::bitvector const&, ibis::bitvector&, ibis::qRange const&) const
	_ZNK4ibis4part15negativeCompareIaEEvRK7array_tIT_ERKNS_9bitvectorERS7_RKNS_6qRangeE @ 929
;	void ibis::part::negativeCompare<unsigned char>(char const*, ibis::bitvector const&, ibis::bitvector&, ibis::qRange const&) const
	_ZNK4ibis4part15negativeCompareIhEEvPKcRKNS_9bitvectorERS4_RKNS_6qRangeE @ 930
;	void ibis::part::negativeCompare<unsigned char>(array_t<unsigned char> const&, ibis::bitvector const&, ibis::bitvector&, ibis::qRange const&) const
	_ZNK4ibis4part15negativeCompareIhEEvRK7array_tIT_ERKNS_9bitvectorERS7_RKNS_6qRangeE @ 931
;	void ibis::part::negativeCompare<short>(char const*, ibis::bitvector const&, ibis::bitvector&, ibis::qRange const&) const
	_ZNK4ibis4part15negativeCompareIsEEvPKcRKNS_9bitvectorERS4_RKNS_6qRangeE @ 932
;	void ibis::part::negativeCompare<short>(array_t<short> const&, ibis::bitvector const&, ibis::bitvector&, ibis::qRange const&) const
	_ZNK4ibis4part15negativeCompareIsEEvRK7array_tIT_ERKNS_9bitvectorERS7_RKNS_6qRangeE @ 933
;	void ibis::part::negativeCompare<unsigned short>(char const*, ibis::bitvector const&, ibis::bitvector&, ibis::qRange const&) const
	_ZNK4ibis4part15negativeCompareItEEvPKcRKNS_9bitvectorERS4_RKNS_6qRangeE @ 934
;	void ibis::part::negativeCompare<unsigned short>(array_t<unsigned short> const&, ibis::bitvector const&, ibis::bitvector&, ibis::qRange const&) const
	_ZNK4ibis4part15negativeCompareItEEvRK7array_tIT_ERKNS_9bitvectorERS7_RKNS_6qRangeE @ 935
;	ibis::part::purgeIndexFiles() const
	_ZNK4ibis4part15purgeIndexFilesEv @ 936
;	ibis::part::estimateMatchAny(ibis::qAnyAny const&, ibis::bitvector&, ibis::bitvector&) const
	_ZNK4ibis4part16estimateMatchAnyERKNS_7qAnyAnyERNS_9bitvectorES5_ @ 937
;	ibis::part::packDistribution(std::vector<double, std::allocator<double> > const&, std::vector<unsigned long, std::allocator<unsigned long> > const&, unsigned long, double*, unsigned long*) const
	_ZNK4ibis4part16packDistributionERKSt6vectorIdSaIdEERKS1_ImSaImEEmPdPm @ 938
;	ibis::part::searchSortedRIDs(array_t<ibis::rid_t> const&, ibis::bitvector&) const
	_ZNK4ibis4part16searchSortedRIDsERK7array_tINS_5rid_tEERNS_9bitvectorE @ 939
;	ibis::part::searchSortedRIDs(ibis::rid_t const&) const
	_ZNK4ibis4part16searchSortedRIDsERKNS_5rid_tE @ 940
;	ibis::part::get1DDistribution(char const*, char const*, double, double, double, std::vector<unsigned int, std::allocator<unsigned int> >&) const
	_ZNK4ibis4part17get1DDistributionEPKcS2_dddRSt6vectorIjSaIjEE @ 941
;	ibis::part::get2DDistribution(char const*, char const*, double, double, double, char const*, double, double, double, std::vector<unsigned int, std::allocator<unsigned int> >&) const
	_ZNK4ibis4part17get2DDistributionEPKcS2_dddS2_dddRSt6vectorIjSaIjEE @ 942
;	ibis::part::get3DDistribution(char const*, char const*, double, double, double, char const*, double, double, double, char const*, double, double, double, std::vector<unsigned int, std::allocator<unsigned int> >&) const
	_ZNK4ibis4part17get3DDistributionEPKcS2_dddS2_dddS2_dddRSt6vectorIjSaIjEE @ 943
;	ibis::part::stringToBitvector(char const*, ibis::bitvector&) const
	_ZNK4ibis4part17stringToBitvectorEPKcRNS_9bitvectorE @ 944
;	ibis::part::matchNameValuePair(char const*, char const*) const
	_ZNK4ibis4part18matchNameValuePairEPKcS2_ @ 945
;	ibis::part::negativeIntCompare(char const*, ibis::bitvector const&, ibis::bitvector&, ibis::qRange const&) const
	_ZNK4ibis4part18negativeIntCompareEPKcRKNS_9bitvectorERS3_RKNS_6qRangeE @ 946
;	ibis::part::numbersToBitvector(std::vector<unsigned long, std::allocator<unsigned long> > const&, ibis::bitvector&) const
	_ZNK4ibis4part18numbersToBitvectorERKSt6vectorImSaImEERNS_9bitvectorE @ 947
;	ibis::part::negativeUIntCompare(char const*, ibis::bitvector const&, ibis::bitvector&, ibis::qRange const&) const
	_ZNK4ibis4part19negativeUIntCompareEPKcRKNS_9bitvectorERS3_RKNS_6qRangeE @ 948
;	ibis::part::getJointDistribution(char const*, char const*, char const*, std::vector<double, std::allocator<double> >&, std::vector<double, std::allocator<double> >&, std::vector<unsigned long, std::allocator<unsigned long> >&) const
	_ZNK4ibis4part20getJointDistributionEPKcS2_S2_RSt6vectorIdSaIdEES6_RS3_ImSaImEE @ 949
;	ibis::part::negativeFloatCompare(char const*, ibis::bitvector const&, ibis::bitvector&, ibis::qRange const&) const
	_ZNK4ibis4part20negativeFloatCompareEPKcRKNS_9bitvectorERS3_RKNS_6qRangeE @ 950
;	ibis::part::negativeDoubleCompare(char const*, ibis::bitvector const&, ibis::bitvector&, ibis::qRange const&) const
	_ZNK4ibis4part21negativeDoubleCompareEPKcRKNS_9bitvectorERS3_RKNS_6qRangeE @ 951
;	ibis::part::getCumulativeDistribution(char const*, std::vector<double, std::allocator<double> >&, std::vector<unsigned long, std::allocator<unsigned long> >&) const
	_ZNK4ibis4part25getCumulativeDistributionEPKcRSt6vectorIdSaIdEERS3_ImSaImEE @ 952
;	ibis::part::getCumulativeDistribution(char const*, char const*, std::vector<double, std::allocator<double> >&, std::vector<unsigned long, std::allocator<unsigned long> >&) const
	_ZNK4ibis4part25getCumulativeDistributionEPKcS2_RSt6vectorIdSaIdEERS3_ImSaImEE @ 953
;	ibis::part::getCumulativeDistribution(char const*, char const*, unsigned long, double*, unsigned long*) const
	_ZNK4ibis4part25getCumulativeDistributionEPKcS2_mPdPm @ 954
;	ibis::part::getCumulativeDistribution(char const*, unsigned long, double*, unsigned long*) const
	_ZNK4ibis4part25getCumulativeDistributionEPKcmPdPm @ 955
;	ibis::part::packCumulativeDistribution(std::vector<double, std::allocator<double> > const&, std::vector<unsigned long, std::allocator<unsigned long> > const&, unsigned long, double*, unsigned long*) const
	_ZNK4ibis4part26packCumulativeDistributionERKSt6vectorIdSaIdEERKS1_ImSaImEEmPdPm @ 956
;	ibis::part::print(std::ostream&) const
	_ZNK4ibis4part5printERSo @ 957
;	ibis::part::doScan(ibis::qRange const&, ibis::bitvector const&, ibis::bitvector&) const
	_ZNK4ibis4part6doScanERKNS_6qRangeERKNS_9bitvectorERS4_ @ 958
;	ibis::part::doScan(ibis::qRange const&, ibis::bitvector&) const
	_ZNK4ibis4part6doScanERKNS_6qRangeERNS_9bitvectorE @ 959
;	ibis::part::doScan(ibis::compRange const&, ibis::bitvector const&, ibis::bitvector&, ibis::compRange::barrel*) const
	_ZNK4ibis4part6doScanERKNS_9compRangeERKNS_9bitvectorERS4_PNS1_6barrelE @ 960
;	ibis::part::doScan(ibis::compRange const&, ibis::bitvector&) const
	_ZNK4ibis4part6doScanERKNS_9compRangeERNS_9bitvectorE @ 961
;	long ibis::part::doScan<signed char>(array_t<signed char> const&, ibis::qRange const&, ibis::bitvector const&, ibis::bitvector&) const
	_ZNK4ibis4part6doScanIaEElRK7array_tIT_ERKNS_6qRangeERKNS_9bitvectorERSA_ @ 962
;	long ibis::part::doScan<char>(array_t<char> const&, ibis::qContinuousRange const&, ibis::bitvector const&, ibis::bitvector&) const
	_ZNK4ibis4part6doScanIcEElRK7array_tIT_ERKNS_16qContinuousRangeERKNS_9bitvectorERSA_ @ 963
;	long ibis::part::doScan<char>(array_t<char> const&, ibis::qRange const&, ibis::bitvector const&, ibis::bitvector&) const
	_ZNK4ibis4part6doScanIcEElRK7array_tIT_ERKNS_6qRangeERKNS_9bitvectorERSA_ @ 964
;	long ibis::part::doScan<double>(array_t<double> const&, ibis::qContinuousRange const&, ibis::bitvector const&, ibis::bitvector&) const
	_ZNK4ibis4part6doScanIdEElRK7array_tIT_ERKNS_16qContinuousRangeERKNS_9bitvectorERSA_ @ 965
;	long ibis::part::doScan<double>(array_t<double> const&, ibis::qRange const&, ibis::bitvector const&, ibis::bitvector&) const
	_ZNK4ibis4part6doScanIdEElRK7array_tIT_ERKNS_6qRangeERKNS_9bitvectorERSA_ @ 966
;	long ibis::part::doScan<float>(array_t<float> const&, ibis::qContinuousRange const&, ibis::bitvector const&, ibis::bitvector&) const
	_ZNK4ibis4part6doScanIfEElRK7array_tIT_ERKNS_16qContinuousRangeERKNS_9bitvectorERSA_ @ 967
;	long ibis::part::doScan<float>(array_t<float> const&, ibis::qRange const&, ibis::bitvector const&, ibis::bitvector&) const
	_ZNK4ibis4part6doScanIfEElRK7array_tIT_ERKNS_6qRangeERKNS_9bitvectorERSA_ @ 968
;	long ibis::part::doScan<unsigned char>(array_t<unsigned char> const&, ibis::qContinuousRange const&, ibis::bitvector const&, ibis::bitvector&) const
	_ZNK4ibis4part6doScanIhEElRK7array_tIT_ERKNS_16qContinuousRangeERKNS_9bitvectorERSA_ @ 969
;	long ibis::part::doScan<unsigned char>(array_t<unsigned char> const&, ibis::qRange const&, ibis::bitvector const&, ibis::bitvector&) const
	_ZNK4ibis4part6doScanIhEElRK7array_tIT_ERKNS_6qRangeERKNS_9bitvectorERSA_ @ 970
;	long ibis::part::doScan<long>(array_t<long> const&, ibis::qContinuousRange const&, ibis::bitvector const&, ibis::bitvector&) const
	_ZNK4ibis4part6doScanIlEElRK7array_tIT_ERKNS_16qContinuousRangeERKNS_9bitvectorERSA_ @ 971
;	long ibis::part::doScan<long>(array_t<long> const&, ibis::qRange const&, ibis::bitvector const&, ibis::bitvector&) const
	_ZNK4ibis4part6doScanIlEElRK7array_tIT_ERKNS_6qRangeERKNS_9bitvectorERSA_ @ 972
;	long ibis::part::doScan<unsigned long>(array_t<unsigned long> const&, ibis::qContinuousRange const&, ibis::bitvector const&, ibis::bitvector&) const
	_ZNK4ibis4part6doScanImEElRK7array_tIT_ERKNS_16qContinuousRangeERKNS_9bitvectorERSA_ @ 973
;	long ibis::part::doScan<unsigned long>(array_t<unsigned long> const&, ibis::qRange const&, ibis::bitvector const&, ibis::bitvector&) const
	_ZNK4ibis4part6doScanImEElRK7array_tIT_ERKNS_6qRangeERKNS_9bitvectorERSA_ @ 974
;	long ibis::part::doScan<short>(array_t<short> const&, ibis::qContinuousRange const&, ibis::bitvector const&, ibis::bitvector&) const
	_ZNK4ibis4part6doScanIsEElRK7array_tIT_ERKNS_16qContinuousRangeERKNS_9bitvectorERSA_ @ 975
;	long ibis::part::doScan<short>(array_t<short> const&, ibis::qRange const&, ibis::bitvector const&, ibis::bitvector&) const
	_ZNK4ibis4part6doScanIsEElRK7array_tIT_ERKNS_6qRangeERKNS_9bitvectorERSA_ @ 976
;	long ibis::part::doScan<unsigned short>(array_t<unsigned short> const&, ibis::qContinuousRange const&, ibis::bitvector const&, ibis::bitvector&) const
	_ZNK4ibis4part6doScanItEElRK7array_tIT_ERKNS_16qContinuousRangeERKNS_9bitvectorERSA_ @ 977
;	long ibis::part::doScan<unsigned short>(array_t<unsigned short> const&, ibis::qRange const&, ibis::bitvector const&, ibis::bitvector&) const
	_ZNK4ibis4part6doScanItEElRK7array_tIT_ERKNS_6qRangeERKNS_9bitvectorERSA_ @ 978
;	long ibis::part::doScan<long long>(array_t<long long> const&, ibis::qContinuousRange const&, ibis::bitvector const&, ibis::bitvector&) const
	_ZNK4ibis4part6doScanIxEElRK7array_tIT_ERKNS_16qContinuousRangeERKNS_9bitvectorERSA_ @ 979
;	long ibis::part::doScan<long long>(array_t<long long> const&, ibis::qRange const&, ibis::bitvector const&, ibis::bitvector&) const
	_ZNK4ibis4part6doScanIxEElRK7array_tIT_ERKNS_6qRangeERKNS_9bitvectorERSA_ @ 980
;	long ibis::part::doScan<unsigned long long>(array_t<unsigned long long> const&, ibis::qContinuousRange const&, ibis::bitvector const&, ibis::bitvector&) const
	_ZNK4ibis4part6doScanIyEElRK7array_tIT_ERKNS_16qContinuousRangeERKNS_9bitvectorERSA_ @ 981
;	long ibis::part::doScan<unsigned long long>(array_t<unsigned long long> const&, ibis::qRange const&, ibis::bitvector const&, ibis::bitvector&) const
	_ZNK4ibis4part6doScanIyEElRK7array_tIT_ERKNS_6qRangeERKNS_9bitvectorERSA_ @ 982
;	long ibis::part::doCount<signed char>(array_t<signed char> const&, ibis::qRange const&, ibis::bitvector const&) const
	_ZNK4ibis4part7doCountIaEElRK7array_tIT_ERKNS_6qRangeERKNS_9bitvectorE @ 983
;	long ibis::part::doCount<signed char>(ibis::qRange const&) const
	_ZNK4ibis4part7doCountIaEElRKNS_6qRangeE @ 984
;	long ibis::part::doCount<signed char, std::binder1st<std::less_equal<signed char> > >(array_t<signed char> const&, ibis::bitvector const&, std::binder1st<std::less_equal<signed char> >) const
	_ZNK4ibis4part7doCountIaSt9binder1stISt10less_equalIaEEEElRK7array_tIT_ERKNS_9bitvectorET0_ @ 985
;	long ibis::part::doCount<signed char, std::binder1st<std::less_equal<signed char> >, std::binder2nd<std::less_equal<signed char> > >(array_t<signed char> const&, ibis::bitvector const&, std::binder1st<std::less_equal<signed char> >, std::binder2nd<std::less_equal<signed char> >) const
	_ZNK4ibis4part7doCountIaSt9binder1stISt10less_equalIaEESt9binder2ndIS4_EEElRK7array_tIT_ERKNS_9bitvectorET0_T1_ @ 986
;	long ibis::part::doCount<signed char, std::binder1st<std::less_equal<signed char> >, std::binder2nd<std::greater_equal<signed char> > >(array_t<signed char> const&, ibis::bitvector const&, std::binder1st<std::less_equal<signed char> >, std::binder2nd<std::greater_equal<signed char> >) const
	_ZNK4ibis4part7doCountIaSt9binder1stISt10less_equalIaEESt9binder2ndISt13greater_equalIaEEEElRK7array_tIT_ERKNS_9bitvectorET0_T1_ @ 987
;	long ibis::part::doCount<signed char, std::binder1st<std::less_equal<signed char> >, std::binder2nd<std::less<signed char> > >(array_t<signed char> const&, ibis::bitvector const&, std::binder1st<std::less_equal<signed char> >, std::binder2nd<std::less<signed char> >) const
	_ZNK4ibis4part7doCountIaSt9binder1stISt10less_equalIaEESt9binder2ndISt4lessIaEEEElRK7array_tIT_ERKNS_9bitvectorET0_T1_ @ 988
;	long ibis::part::doCount<signed char, std::binder1st<std::less_equal<signed char> >, std::binder2nd<std::greater<signed char> > >(array_t<signed char> const&, ibis::bitvector const&, std::binder1st<std::less_equal<signed char> >, std::binder2nd<std::greater<signed char> >) const
	_ZNK4ibis4part7doCountIaSt9binder1stISt10less_equalIaEESt9binder2ndISt7greaterIaEEEElRK7array_tIT_ERKNS_9bitvectorET0_T1_ @ 989
;	long ibis::part::doCount<signed char, std::binder1st<std::less_equal<signed char> >, std::binder2nd<std::equal_to<signed char> > >(array_t<signed char> const&, ibis::bitvector const&, std::binder1st<std::less_equal<signed char> >, std::binder2nd<std::equal_to<signed char> >) const
	_ZNK4ibis4part7doCountIaSt9binder1stISt10less_equalIaEESt9binder2ndISt8equal_toIaEEEElRK7array_tIT_ERKNS_9bitvectorET0_T1_ @ 990
;	long ibis::part::doCount<signed char, std::binder1st<std::greater_equal<signed char> > >(array_t<signed char> const&, ibis::bitvector const&, std::binder1st<std::greater_equal<signed char> >) const
	_ZNK4ibis4part7doCountIaSt9binder1stISt13greater_equalIaEEEElRK7array_tIT_ERKNS_9bitvectorET0_ @ 991
;	long ibis::part::doCount<signed char, std::binder1st<std::greater_equal<signed char> >, std::binder2nd<std::greater_equal<signed char> > >(array_t<signed char> const&, ibis::bitvector const&, std::binder1st<std::greater_equal<signed char> >, std::binder2nd<std::greater_equal<signed char> >) const
	_ZNK4ibis4part7doCountIaSt9binder1stISt13greater_equalIaEESt9binder2ndIS4_EEElRK7array_tIT_ERKNS_9bitvectorET0_T1_ @ 992
;	long ibis::part::doCount<signed char, std::binder1st<std::greater_equal<signed char> >, std::binder2nd<std::less_equal<signed char> > >(array_t<signed char> const&, ibis::bitvector const&, std::binder1st<std::greater_equal<signed char> >, std::binder2nd<std::less_equal<signed char> >) const
	_ZNK4ibis4part7doCountIaSt9binder1stISt13greater_equalIaEESt9binder2ndISt10less_equalIaEEEElRK7array_tIT_ERKNS_9bitvectorET0_T1_ @ 993
;	long ibis::part::doCount<signed char, std::binder1st<std::greater_equal<signed char> >, std::binder2nd<std::less<signed char> > >(array_t<signed char> const&, ibis::bitvector const&, std::binder1st<std::greater_equal<signed char> >, std::binder2nd<std::less<signed char> >) const
	_ZNK4ibis4part7doCountIaSt9binder1stISt13greater_equalIaEESt9binder2ndISt4lessIaEEEElRK7array_tIT_ERKNS_9bitvectorET0_T1_ @ 994
;	long ibis::part::doCount<signed char, std::binder1st<std::greater_equal<signed char> >, std::binder2nd<std::greater<signed char> > >(array_t<signed char> const&, ibis::bitvector const&, std::binder1st<std::greater_equal<signed char> >, std::binder2nd<std::greater<signed char> >) const
	_ZNK4ibis4part7doCountIaSt9binder1stISt13greater_equalIaEESt9binder2ndISt7greaterIaEEEElRK7array_tIT_ERKNS_9bitvectorET0_T1_ @ 995
;	long ibis::part::doCount<signed char, std::binder1st<std::greater_equal<signed char> >, std::binder2nd<std::equal_to<signed char> > >(array_t<signed char> const&, ibis::bitvector const&, std::binder1st<std::greater_equal<signed char> >, std::binder2nd<std::equal_to<signed char> >) const
	_ZNK4ibis4part7doCountIaSt9binder1stISt13greater_equalIaEESt9binder2ndISt8equal_toIaEEEElRK7array_tIT_ERKNS_9bitvectorET0_T1_ @ 996
;	long ibis::part::doCount<signed char, std::binder1st<std::less<signed char> > >(array_t<signed char> const&, ibis::bitvector const&, std::binder1st<std::less<signed char> >) const
	_ZNK4ibis4part7doCountIaSt9binder1stISt4lessIaEEEElRK7array_tIT_ERKNS_9bitvectorET0_ @ 997
;	long ibis::part::doCount<signed char, std::binder1st<std::less<signed char> >, std::binder2nd<std::less<signed char> > >(array_t<signed char> const&, ibis::bitvector const&, std::binder1st<std::less<signed char> >, std::binder2nd<std::less<signed char> >) const
	_ZNK4ibis4part7doCountIaSt9binder1stISt4lessIaEESt9binder2ndIS4_EEElRK7array_tIT_ERKNS_9bitvectorET0_T1_ @ 998
;	long ibis::part::doCount<signed char, std::binder1st<std::less<signed char> >, std::binder2nd<std::less_equal<signed char> > >(array_t<signed char> const&, ibis::bitvector const&, std::binder1st<std::less<signed char> >, std::binder2nd<std::less_equal<signed char> >) const
	_ZNK4ibis4part7doCountIaSt9binder1stISt4lessIaEESt9binder2ndISt10less_equalIaEEEElRK7array_tIT_ERKNS_9bitvectorET0_T1_ @ 999
;	long ibis::part::doCount<signed char, std::binder1st<std::less<signed char> >, std::binder2nd<std::greater_equal<signed char> > >(array_t<signed char> const&, ibis::bitvector const&, std::binder1st<std::less<signed char> >, std::binder2nd<std::greater_equal<signed char> >) const
	_ZNK4ibis4part7doCountIaSt9binder1stISt4lessIaEESt9binder2ndISt13greater_equalIaEEEElRK7array_tIT_ERKNS_9bitvectorET0_T1_ @ 1000
;	long ibis::part::doCount<signed char, std::binder1st<std::less<signed char> >, std::binder2nd<std::greater<signed char> > >(array_t<signed char> const&, ibis::bitvector const&, std::binder1st<std::less<signed char> >, std::binder2nd<std::greater<signed char> >) const
	_ZNK4ibis4part7doCountIaSt9binder1stISt4lessIaEESt9binder2ndISt7greaterIaEEEElRK7array_tIT_ERKNS_9bitvectorET0_T1_ @ 1001
;	long ibis::part::doCount<signed char, std::binder1st<std::less<signed char> >, std::binder2nd<std::equal_to<signed char> > >(array_t<signed char> const&, ibis::bitvector const&, std::binder1st<std::less<signed char> >, std::binder2nd<std::equal_to<signed char> >) const
	_ZNK4ibis4part7doCountIaSt9binder1stISt4lessIaEESt9binder2ndISt8equal_toIaEEEElRK7array_tIT_ERKNS_9bitvectorET0_T1_ @ 1002
;	long ibis::part::doCount<signed char, std::binder1st<std::greater<signed char> > >(array_t<signed char> const&, ibis::bitvector const&, std::binder1st<std::greater<signed char> >) const
	_ZNK4ibis4part7doCountIaSt9binder1stISt7greaterIaEEEElRK7array_tIT_ERKNS_9bitvectorET0_ @ 1003
;	long ibis::part::doCount<signed char, std::binder1st<std::greater<signed char> >, std::binder2nd<std::greater<signed char> > >(array_t<signed char> const&, ibis::bitvector const&, std::binder1st<std::greater<signed char> >, std::binder2nd<std::greater<signed char> >) const
	_ZNK4ibis4part7doCountIaSt9binder1stISt7greaterIaEESt9binder2ndIS4_EEElRK7array_tIT_ERKNS_9bitvectorET0_T1_ @ 1004
;	long ibis::part::doCount<signed char, std::binder1st<std::greater<signed char> >, std::binder2nd<std::less_equal<signed char> > >(array_t<signed char> const&, ibis::bitvector const&, std::binder1st<std::greater<signed char> >, std::binder2nd<std::less_equal<signed char> >) const
	_ZNK4ibis4part7doCountIaSt9binder1stISt7greaterIaEESt9binder2ndISt10less_equalIaEEEElRK7array_tIT_ERKNS_9bitvectorET0_T1_ @ 1005
;	long ibis::part::doCount<signed char, std::binder1st<std::greater<signed char> >, std::binder2nd<std::greater_equal<signed char> > >(array_t<signed char> const&, ibis::bitvector const&, std::binder1st<std::greater<signed char> >, std::binder2nd<std::greater_equal<signed char> >) const
	_ZNK4ibis4part7doCountIaSt9binder1stISt7greaterIaEESt9binder2ndISt13greater_equalIaEEEElRK7array_tIT_ERKNS_9bitvectorET0_T1_ @ 1006
;	long ibis::part::doCount<signed char, std::binder1st<std::greater<signed char> >, std::binder2nd<std::less<signed char> > >(array_t<signed char> const&, ibis::bitvector const&, std::binder1st<std::greater<signed char> >, std::binder2nd<std::less<signed char> >) const
	_ZNK4ibis4part7doCountIaSt9binder1stISt7greaterIaEESt9binder2ndISt4lessIaEEEElRK7array_tIT_ERKNS_9bitvectorET0_T1_ @ 1007
;	long ibis::part::doCount<signed char, std::binder1st<std::greater<signed char> >, std::binder2nd<std::equal_to<signed char> > >(array_t<signed char> const&, ibis::bitvector const&, std::binder1st<std::greater<signed char> >, std::binder2nd<std::equal_to<signed char> >) const
	_ZNK4ibis4part7doCountIaSt9binder1stISt7greaterIaEESt9binder2ndISt8equal_toIaEEEElRK7array_tIT_ERKNS_9bitvectorET0_T1_ @ 1008
;	long ibis::part::doCount<signed char, std::binder1st<std::equal_to<signed char> > >(array_t<signed char> const&, ibis::bitvector const&, std::binder1st<std::equal_to<signed char> >) const
	_ZNK4ibis4part7doCountIaSt9binder1stISt8equal_toIaEEEElRK7array_tIT_ERKNS_9bitvectorET0_ @ 1009
;	long ibis::part::doCount<signed char, std::binder1st<std::equal_to<signed char> >, std::binder2nd<std::equal_to<signed char> > >(array_t<signed char> const&, ibis::bitvector const&, std::binder1st<std::equal_to<signed char> >, std::binder2nd<std::equal_to<signed char> >) const
	_ZNK4ibis4part7doCountIaSt9binder1stISt8equal_toIaEESt9binder2ndIS4_EEElRK7array_tIT_ERKNS_9bitvectorET0_T1_ @ 1010
;	long ibis::part::doCount<signed char, std::binder1st<std::equal_to<signed char> >, std::binder2nd<std::less_equal<signed char> > >(array_t<signed char> const&, ibis::bitvector const&, std::binder1st<std::equal_to<signed char> >, std::binder2nd<std::less_equal<signed char> >) const
	_ZNK4ibis4part7doCountIaSt9binder1stISt8equal_toIaEESt9binder2ndISt10less_equalIaEEEElRK7array_tIT_ERKNS_9bitvectorET0_T1_ @ 1011
;	long ibis::part::doCount<signed char, std::binder1st<std::equal_to<signed char> >, std::binder2nd<std::greater_equal<signed char> > >(array_t<signed char> const&, ibis::bitvector const&, std::binder1st<std::equal_to<signed char> >, std::binder2nd<std::greater_equal<signed char> >) const
	_ZNK4ibis4part7doCountIaSt9binder1stISt8equal_toIaEESt9binder2ndISt13greater_equalIaEEEElRK7array_tIT_ERKNS_9bitvectorET0_T1_ @ 1012
;	long ibis::part::doCount<signed char, std::binder1st<std::equal_to<signed char> >, std::binder2nd<std::less<signed char> > >(array_t<signed char> const&, ibis::bitvector const&, std::binder1st<std::equal_to<signed char> >, std::binder2nd<std::less<signed char> >) const
	_ZNK4ibis4part7doCountIaSt9binder1stISt8equal_toIaEESt9binder2ndISt4lessIaEEEElRK7array_tIT_ERKNS_9bitvectorET0_T1_ @ 1013
;	long ibis::part::doCount<signed char, std::binder1st<std::equal_to<signed char> >, std::binder2nd<std::greater<signed char> > >(array_t<signed char> const&, ibis::bitvector const&, std::binder1st<std::equal_to<signed char> >, std::binder2nd<std::greater<signed char> >) const
	_ZNK4ibis4part7doCountIaSt9binder1stISt8equal_toIaEESt9binder2ndISt7greaterIaEEEElRK7array_tIT_ERKNS_9bitvectorET0_T1_ @ 1014
;	long ibis::part::doCount<signed char, std::binder2nd<std::less_equal<signed char> > >(array_t<signed char> const&, ibis::bitvector const&, std::binder2nd<std::less_equal<signed char> >) const
	_ZNK4ibis4part7doCountIaSt9binder2ndISt10less_equalIaEEEElRK7array_tIT_ERKNS_9bitvectorET0_ @ 1015
;	long ibis::part::doCount<signed char, std::binder2nd<std::greater_equal<signed char> > >(array_t<signed char> const&, ibis::bitvector const&, std::binder2nd<std::greater_equal<signed char> >) const
	_ZNK4ibis4part7doCountIaSt9binder2ndISt13greater_equalIaEEEElRK7array_tIT_ERKNS_9bitvectorET0_ @ 1016
;	long ibis::part::doCount<signed char, std::binder2nd<std::less<signed char> > >(array_t<signed char> const&, ibis::bitvector const&, std::binder2nd<std::less<signed char> >) const
	_ZNK4ibis4part7doCountIaSt9binder2ndISt4lessIaEEEElRK7array_tIT_ERKNS_9bitvectorET0_ @ 1017
;	long ibis::part::doCount<signed char, std::binder2nd<std::greater<signed char> > >(array_t<signed char> const&, ibis::bitvector const&, std::binder2nd<std::greater<signed char> >) const
	_ZNK4ibis4part7doCountIaSt9binder2ndISt7greaterIaEEEElRK7array_tIT_ERKNS_9bitvectorET0_ @ 1018
;	long ibis::part::doCount<signed char, std::binder2nd<std::equal_to<signed char> > >(array_t<signed char> const&, ibis::bitvector const&, std::binder2nd<std::equal_to<signed char> >) const
	_ZNK4ibis4part7doCountIaSt9binder2ndISt8equal_toIaEEEElRK7array_tIT_ERKNS_9bitvectorET0_ @ 1019
;	long ibis::part::doCount<double>(array_t<double> const&, ibis::qRange const&, ibis::bitvector const&) const
	_ZNK4ibis4part7doCountIdEElRK7array_tIT_ERKNS_6qRangeERKNS_9bitvectorE @ 1020
;	long ibis::part::doCount<double>(ibis::qRange const&) const
	_ZNK4ibis4part7doCountIdEElRKNS_6qRangeE @ 1021
;	long ibis::part::doCount<double, std::binder1st<std::less_equal<double> > >(array_t<double> const&, ibis::bitvector const&, std::binder1st<std::less_equal<double> >) const
	_ZNK4ibis4part7doCountIdSt9binder1stISt10less_equalIdEEEElRK7array_tIT_ERKNS_9bitvectorET0_ @ 1022
;	long ibis::part::doCount<double, std::binder1st<std::less_equal<double> >, std::binder2nd<std::less_equal<double> > >(array_t<double> const&, ibis::bitvector const&, std::binder1st<std::less_equal<double> >, std::binder2nd<std::less_equal<double> >) const
	_ZNK4ibis4part7doCountIdSt9binder1stISt10less_equalIdEESt9binder2ndIS4_EEElRK7array_tIT_ERKNS_9bitvectorET0_T1_ @ 1023
;	long ibis::part::doCount<double, std::binder1st<std::less_equal<double> >, std::binder2nd<std::greater_equal<double> > >(array_t<double> const&, ibis::bitvector const&, std::binder1st<std::less_equal<double> >, std::binder2nd<std::greater_equal<double> >) const
	_ZNK4ibis4part7doCountIdSt9binder1stISt10less_equalIdEESt9binder2ndISt13greater_equalIdEEEElRK7array_tIT_ERKNS_9bitvectorET0_T1_ @ 1024
;	long ibis::part::doCount<double, std::binder1st<std::less_equal<double> >, std::binder2nd<std::less<double> > >(array_t<double> const&, ibis::bitvector const&, std::binder1st<std::less_equal<double> >, std::binder2nd<std::less<double> >) const
	_ZNK4ibis4part7doCountIdSt9binder1stISt10less_equalIdEESt9binder2ndISt4lessIdEEEElRK7array_tIT_ERKNS_9bitvectorET0_T1_ @ 1025
;	long ibis::part::doCount<double, std::binder1st<std::less_equal<double> >, std::binder2nd<std::greater<double> > >(array_t<double> const&, ibis::bitvector const&, std::binder1st<std::less_equal<double> >, std::binder2nd<std::greater<double> >) const
	_ZNK4ibis4part7doCountIdSt9binder1stISt10less_equalIdEESt9binder2ndISt7greaterIdEEEElRK7array_tIT_ERKNS_9bitvectorET0_T1_ @ 1026
;	long ibis::part::doCount<double, std::binder1st<std::less_equal<double> >, std::binder2nd<std::equal_to<double> > >(array_t<double> const&, ibis::bitvector const&, std::binder1st<std::less_equal<double> >, std::binder2nd<std::equal_to<double> >) const
	_ZNK4ibis4part7doCountIdSt9binder1stISt10less_equalIdEESt9binder2ndISt8equal_toIdEEEElRK7array_tIT_ERKNS_9bitvectorET0_T1_ @ 1027
;	long ibis::part::doCount<double, std::binder1st<std::greater_equal<double> > >(array_t<double> const&, ibis::bitvector const&, std::binder1st<std::greater_equal<double> >) const
	_ZNK4ibis4part7doCountIdSt9binder1stISt13greater_equalIdEEEElRK7array_tIT_ERKNS_9bitvectorET0_ @ 1028
;	long ibis::part::doCount<double, std::binder1st<std::greater_equal<double> >, std::binder2nd<std::greater_equal<double> > >(array_t<double> const&, ibis::bitvector const&, std::binder1st<std::greater_equal<double> >, std::binder2nd<std::greater_equal<double> >) const
	_ZNK4ibis4part7doCountIdSt9binder1stISt13greater_equalIdEESt9binder2ndIS4_EEElRK7array_tIT_ERKNS_9bitvectorET0_T1_ @ 1029
;	long ibis::part::doCount<double, std::binder1st<std::greater_equal<double> >, std::binder2nd<std::less_equal<double> > >(array_t<double> const&, ibis::bitvector const&, std::binder1st<std::greater_equal<double> >, std::binder2nd<std::less_equal<double> >) const
	_ZNK4ibis4part7doCountIdSt9binder1stISt13greater_equalIdEESt9binder2ndISt10less_equalIdEEEElRK7array_tIT_ERKNS_9bitvectorET0_T1_ @ 1030
;	long ibis::part::doCount<double, std::binder1st<std::greater_equal<double> >, std::binder2nd<std::less<double> > >(array_t<double> const&, ibis::bitvector const&, std::binder1st<std::greater_equal<double> >, std::binder2nd<std::less<double> >) const
	_ZNK4ibis4part7doCountIdSt9binder1stISt13greater_equalIdEESt9binder2ndISt4lessIdEEEElRK7array_tIT_ERKNS_9bitvectorET0_T1_ @ 1031
;	long ibis::part::doCount<double, std::binder1st<std::greater_equal<double> >, std::binder2nd<std::greater<double> > >(array_t<double> const&, ibis::bitvector const&, std::binder1st<std::greater_equal<double> >, std::binder2nd<std::greater<double> >) const
	_ZNK4ibis4part7doCountIdSt9binder1stISt13greater_equalIdEESt9binder2ndISt7greaterIdEEEElRK7array_tIT_ERKNS_9bitvectorET0_T1_ @ 1032
;	long ibis::part::doCount<double, std::binder1st<std::greater_equal<double> >, std::binder2nd<std::equal_to<double> > >(array_t<double> const&, ibis::bitvector const&, std::binder1st<std::greater_equal<double> >, std::binder2nd<std::equal_to<double> >) const
	_ZNK4ibis4part7doCountIdSt9binder1stISt13greater_equalIdEESt9binder2ndISt8equal_toIdEEEElRK7array_tIT_ERKNS_9bitvectorET0_T1_ @ 1033
;	long ibis::part::doCount<double, std::binder1st<std::less<double> > >(array_t<double> const&, ibis::bitvector const&, std::binder1st<std::less<double> >) const
	_ZNK4ibis4part7doCountIdSt9binder1stISt4lessIdEEEElRK7array_tIT_ERKNS_9bitvectorET0_ @ 1034
;	long ibis::part::doCount<double, std::binder1st<std::less<double> >, std::binder2nd<std::less<double> > >(array_t<double> const&, ibis::bitvector const&, std::binder1st<std::less<double> >, std::binder2nd<std::less<double> >) const
	_ZNK4ibis4part7doCountIdSt9binder1stISt4lessIdEESt9binder2ndIS4_EEElRK7array_tIT_ERKNS_9bitvectorET0_T1_ @ 1035
;	long ibis::part::doCount<double, std::binder1st<std::less<double> >, std::binder2nd<std::less_equal<double> > >(array_t<double> const&, ibis::bitvector const&, std::binder1st<std::less<double> >, std::binder2nd<std::less_equal<double> >) const
	_ZNK4ibis4part7doCountIdSt9binder1stISt4lessIdEESt9binder2ndISt10less_equalIdEEEElRK7array_tIT_ERKNS_9bitvectorET0_T1_ @ 1036
;	long ibis::part::doCount<double, std::binder1st<std::less<double> >, std::binder2nd<std::greater_equal<double> > >(array_t<double> const&, ibis::bitvector const&, std::binder1st<std::less<double> >, std::binder2nd<std::greater_equal<double> >) const
	_ZNK4ibis4part7doCountIdSt9binder1stISt4lessIdEESt9binder2ndISt13greater_equalIdEEEElRK7array_tIT_ERKNS_9bitvectorET0_T1_ @ 1037
;	long ibis::part::doCount<double, std::binder1st<std::less<double> >, std::binder2nd<std::greater<double> > >(array_t<double> const&, ibis::bitvector const&, std::binder1st<std::less<double> >, std::binder2nd<std::greater<double> >) const
	_ZNK4ibis4part7doCountIdSt9binder1stISt4lessIdEESt9binder2ndISt7greaterIdEEEElRK7array_tIT_ERKNS_9bitvectorET0_T1_ @ 1038
;	long ibis::part::doCount<double, std::binder1st<std::less<double> >, std::binder2nd<std::equal_to<double> > >(array_t<double> const&, ibis::bitvector const&, std::binder1st<std::less<double> >, std::binder2nd<std::equal_to<double> >) const
	_ZNK4ibis4part7doCountIdSt9binder1stISt4lessIdEESt9binder2ndISt8equal_toIdEEEElRK7array_tIT_ERKNS_9bitvectorET0_T1_ @ 1039
;	long ibis::part::doCount<double, std::binder1st<std::greater<double> > >(array_t<double> const&, ibis::bitvector const&, std::binder1st<std::greater<double> >) const
	_ZNK4ibis4part7doCountIdSt9binder1stISt7greaterIdEEEElRK7array_tIT_ERKNS_9bitvectorET0_ @ 1040
;	long ibis::part::doCount<double, std::binder1st<std::greater<double> >, std::binder2nd<std::greater<double> > >(array_t<double> const&, ibis::bitvector const&, std::binder1st<std::greater<double> >, std::binder2nd<std::greater<double> >) const
	_ZNK4ibis4part7doCountIdSt9binder1stISt7greaterIdEESt9binder2ndIS4_EEElRK7array_tIT_ERKNS_9bitvectorET0_T1_ @ 1041
;	long ibis::part::doCount<double, std::binder1st<std::greater<double> >, std::binder2nd<std::less_equal<double> > >(array_t<double> const&, ibis::bitvector const&, std::binder1st<std::greater<double> >, std::binder2nd<std::less_equal<double> >) const
	_ZNK4ibis4part7doCountIdSt9binder1stISt7greaterIdEESt9binder2ndISt10less_equalIdEEEElRK7array_tIT_ERKNS_9bitvectorET0_T1_ @ 1042
;	long ibis::part::doCount<double, std::binder1st<std::greater<double> >, std::binder2nd<std::greater_equal<double> > >(array_t<double> const&, ibis::bitvector const&, std::binder1st<std::greater<double> >, std::binder2nd<std::greater_equal<double> >) const
	_ZNK4ibis4part7doCountIdSt9binder1stISt7greaterIdEESt9binder2ndISt13greater_equalIdEEEElRK7array_tIT_ERKNS_9bitvectorET0_T1_ @ 1043
;	long ibis::part::doCount<double, std::binder1st<std::greater<double> >, std::binder2nd<std::less<double> > >(array_t<double> const&, ibis::bitvector const&, std::binder1st<std::greater<double> >, std::binder2nd<std::less<double> >) const
	_ZNK4ibis4part7doCountIdSt9binder1stISt7greaterIdEESt9binder2ndISt4lessIdEEEElRK7array_tIT_ERKNS_9bitvectorET0_T1_ @ 1044
;	long ibis::part::doCount<double, std::binder1st<std::greater<double> >, std::binder2nd<std::equal_to<double> > >(array_t<double> const&, ibis::bitvector const&, std::binder1st<std::greater<double> >, std::binder2nd<std::equal_to<double> >) const
	_ZNK4ibis4part7doCountIdSt9binder1stISt7greaterIdEESt9binder2ndISt8equal_toIdEEEElRK7array_tIT_ERKNS_9bitvectorET0_T1_ @ 1045
;	long ibis::part::doCount<double, std::binder1st<std::equal_to<double> > >(array_t<double> const&, ibis::bitvector const&, std::binder1st<std::equal_to<double> >) const
	_ZNK4ibis4part7doCountIdSt9binder1stISt8equal_toIdEEEElRK7array_tIT_ERKNS_9bitvectorET0_ @ 1046
;	long ibis::part::doCount<double, std::binder1st<std::equal_to<double> >, std::binder2nd<std::equal_to<double> > >(array_t<double> const&, ibis::bitvector const&, std::binder1st<std::equal_to<double> >, std::binder2nd<std::equal_to<double> >) const
	_ZNK4ibis4part7doCountIdSt9binder1stISt8equal_toIdEESt9binder2ndIS4_EEElRK7array_tIT_ERKNS_9bitvectorET0_T1_ @ 1047
;	long ibis::part::doCount<double, std::binder1st<std::equal_to<double> >, std::binder2nd<std::less_equal<double> > >(array_t<double> const&, ibis::bitvector const&, std::binder1st<std::equal_to<double> >, std::binder2nd<std::less_equal<double> >) const
	_ZNK4ibis4part7doCountIdSt9binder1stISt8equal_toIdEESt9binder2ndISt10less_equalIdEEEElRK7array_tIT_ERKNS_9bitvectorET0_T1_ @ 1048
;	long ibis::part::doCount<double, std::binder1st<std::equal_to<double> >, std::binder2nd<std::greater_equal<double> > >(array_t<double> const&, ibis::bitvector const&, std::binder1st<std::equal_to<double> >, std::binder2nd<std::greater_equal<double> >) const
	_ZNK4ibis4part7doCountIdSt9binder1stISt8equal_toIdEESt9binder2ndISt13greater_equalIdEEEElRK7array_tIT_ERKNS_9bitvectorET0_T1_ @ 1049
;	long ibis::part::doCount<double, std::binder1st<std::equal_to<double> >, std::binder2nd<std::less<double> > >(array_t<double> const&, ibis::bitvector const&, std::binder1st<std::equal_to<double> >, std::binder2nd<std::less<double> >) const
	_ZNK4ibis4part7doCountIdSt9binder1stISt8equal_toIdEESt9binder2ndISt4lessIdEEEElRK7array_tIT_ERKNS_9bitvectorET0_T1_ @ 1050
;	long ibis::part::doCount<double, std::binder1st<std::equal_to<double> >, std::binder2nd<std::greater<double> > >(array_t<double> const&, ibis::bitvector const&, std::binder1st<std::equal_to<double> >, std::binder2nd<std::greater<double> >) const
	_ZNK4ibis4part7doCountIdSt9binder1stISt8equal_toIdEESt9binder2ndISt7greaterIdEEEElRK7array_tIT_ERKNS_9bitvectorET0_T1_ @ 1051
;	long ibis::part::doCount<double, std::binder2nd<std::less_equal<double> > >(array_t<double> const&, ibis::bitvector const&, std::binder2nd<std::less_equal<double> >) const
	_ZNK4ibis4part7doCountIdSt9binder2ndISt10less_equalIdEEEElRK7array_tIT_ERKNS_9bitvectorET0_ @ 1052
;	long ibis::part::doCount<double, std::binder2nd<std::greater_equal<double> > >(array_t<double> const&, ibis::bitvector const&, std::binder2nd<std::greater_equal<double> >) const
	_ZNK4ibis4part7doCountIdSt9binder2ndISt13greater_equalIdEEEElRK7array_tIT_ERKNS_9bitvectorET0_ @ 1053
;	long ibis::part::doCount<double, std::binder2nd<std::less<double> > >(array_t<double> const&, ibis::bitvector const&, std::binder2nd<std::less<double> >) const
	_ZNK4ibis4part7doCountIdSt9binder2ndISt4lessIdEEEElRK7array_tIT_ERKNS_9bitvectorET0_ @ 1054
;	long ibis::part::doCount<double, std::binder2nd<std::greater<double> > >(array_t<double> const&, ibis::bitvector const&, std::binder2nd<std::greater<double> >) const
	_ZNK4ibis4part7doCountIdSt9binder2ndISt7greaterIdEEEElRK7array_tIT_ERKNS_9bitvectorET0_ @ 1055
;	long ibis::part::doCount<double, std::binder2nd<std::equal_to<double> > >(array_t<double> const&, ibis::bitvector const&, std::binder2nd<std::equal_to<double> >) const
	_ZNK4ibis4part7doCountIdSt9binder2ndISt8equal_toIdEEEElRK7array_tIT_ERKNS_9bitvectorET0_ @ 1056
;	long ibis::part::doCount<float>(array_t<float> const&, ibis::qRange const&, ibis::bitvector const&) const
	_ZNK4ibis4part7doCountIfEElRK7array_tIT_ERKNS_6qRangeERKNS_9bitvectorE @ 1057
;	long ibis::part::doCount<float>(ibis::qRange const&) const
	_ZNK4ibis4part7doCountIfEElRKNS_6qRangeE @ 1058
;	long ibis::part::doCount<float, std::binder1st<std::less_equal<float> > >(array_t<float> const&, ibis::bitvector const&, std::binder1st<std::less_equal<float> >) const
	_ZNK4ibis4part7doCountIfSt9binder1stISt10less_equalIfEEEElRK7array_tIT_ERKNS_9bitvectorET0_ @ 1059
;	long ibis::part::doCount<float, std::binder1st<std::less_equal<float> >, std::binder2nd<std::less_equal<float> > >(array_t<float> const&, ibis::bitvector const&, std::binder1st<std::less_equal<float> >, std::binder2nd<std::less_equal<float> >) const
	_ZNK4ibis4part7doCountIfSt9binder1stISt10less_equalIfEESt9binder2ndIS4_EEElRK7array_tIT_ERKNS_9bitvectorET0_T1_ @ 1060
;	long ibis::part::doCount<float, std::binder1st<std::less_equal<float> >, std::binder2nd<std::greater_equal<float> > >(array_t<float> const&, ibis::bitvector const&, std::binder1st<std::less_equal<float> >, std::binder2nd<std::greater_equal<float> >) const
	_ZNK4ibis4part7doCountIfSt9binder1stISt10less_equalIfEESt9binder2ndISt13greater_equalIfEEEElRK7array_tIT_ERKNS_9bitvectorET0_T1_ @ 1061
;	long ibis::part::doCount<float, std::binder1st<std::less_equal<float> >, std::binder2nd<std::less<float> > >(array_t<float> const&, ibis::bitvector const&, std::binder1st<std::less_equal<float> >, std::binder2nd<std::less<float> >) const
	_ZNK4ibis4part7doCountIfSt9binder1stISt10less_equalIfEESt9binder2ndISt4lessIfEEEElRK7array_tIT_ERKNS_9bitvectorET0_T1_ @ 1062
;	long ibis::part::doCount<float, std::binder1st<std::less_equal<float> >, std::binder2nd<std::greater<float> > >(array_t<float> const&, ibis::bitvector const&, std::binder1st<std::less_equal<float> >, std::binder2nd<std::greater<float> >) const
	_ZNK4ibis4part7doCountIfSt9binder1stISt10less_equalIfEESt9binder2ndISt7greaterIfEEEElRK7array_tIT_ERKNS_9bitvectorET0_T1_ @ 1063
;	long ibis::part::doCount<float, std::binder1st<std::less_equal<float> >, std::binder2nd<std::equal_to<float> > >(array_t<float> const&, ibis::bitvector const&, std::binder1st<std::less_equal<float> >, std::binder2nd<std::equal_to<float> >) const
	_ZNK4ibis4part7doCountIfSt9binder1stISt10less_equalIfEESt9binder2ndISt8equal_toIfEEEElRK7array_tIT_ERKNS_9bitvectorET0_T1_ @ 1064
;	long ibis::part::doCount<float, std::binder1st<std::greater_equal<float> > >(array_t<float> const&, ibis::bitvector const&, std::binder1st<std::greater_equal<float> >) const
	_ZNK4ibis4part7doCountIfSt9binder1stISt13greater_equalIfEEEElRK7array_tIT_ERKNS_9bitvectorET0_ @ 1065
;	long ibis::part::doCount<float, std::binder1st<std::greater_equal<float> >, std::binder2nd<std::greater_equal<float> > >(array_t<float> const&, ibis::bitvector const&, std::binder1st<std::greater_equal<float> >, std::binder2nd<std::greater_equal<float> >) const
	_ZNK4ibis4part7doCountIfSt9binder1stISt13greater_equalIfEESt9binder2ndIS4_EEElRK7array_tIT_ERKNS_9bitvectorET0_T1_ @ 1066
;	long ibis::part::doCount<float, std::binder1st<std::greater_equal<float> >, std::binder2nd<std::less_equal<float> > >(array_t<float> const&, ibis::bitvector const&, std::binder1st<std::greater_equal<float> >, std::binder2nd<std::less_equal<float> >) const
	_ZNK4ibis4part7doCountIfSt9binder1stISt13greater_equalIfEESt9binder2ndISt10less_equalIfEEEElRK7array_tIT_ERKNS_9bitvectorET0_T1_ @ 1067
;	long ibis::part::doCount<float, std::binder1st<std::greater_equal<float> >, std::binder2nd<std::less<float> > >(array_t<float> const&, ibis::bitvector const&, std::binder1st<std::greater_equal<float> >, std::binder2nd<std::less<float> >) const
	_ZNK4ibis4part7doCountIfSt9binder1stISt13greater_equalIfEESt9binder2ndISt4lessIfEEEElRK7array_tIT_ERKNS_9bitvectorET0_T1_ @ 1068
;	long ibis::part::doCount<float, std::binder1st<std::greater_equal<float> >, std::binder2nd<std::greater<float> > >(array_t<float> const&, ibis::bitvector const&, std::binder1st<std::greater_equal<float> >, std::binder2nd<std::greater<float> >) const
	_ZNK4ibis4part7doCountIfSt9binder1stISt13greater_equalIfEESt9binder2ndISt7greaterIfEEEElRK7array_tIT_ERKNS_9bitvectorET0_T1_ @ 1069
;	long ibis::part::doCount<float, std::binder1st<std::greater_equal<float> >, std::binder2nd<std::equal_to<float> > >(array_t<float> const&, ibis::bitvector const&, std::binder1st<std::greater_equal<float> >, std::binder2nd<std::equal_to<float> >) const
	_ZNK4ibis4part7doCountIfSt9binder1stISt13greater_equalIfEESt9binder2ndISt8equal_toIfEEEElRK7array_tIT_ERKNS_9bitvectorET0_T1_ @ 1070
;	long ibis::part::doCount<float, std::binder1st<std::less<float> > >(array_t<float> const&, ibis::bitvector const&, std::binder1st<std::less<float> >) const
	_ZNK4ibis4part7doCountIfSt9binder1stISt4lessIfEEEElRK7array_tIT_ERKNS_9bitvectorET0_ @ 1071
;	long ibis::part::doCount<float, std::binder1st<std::less<float> >, std::binder2nd<std::less<float> > >(array_t<float> const&, ibis::bitvector const&, std::binder1st<std::less<float> >, std::binder2nd<std::less<float> >) const
	_ZNK4ibis4part7doCountIfSt9binder1stISt4lessIfEESt9binder2ndIS4_EEElRK7array_tIT_ERKNS_9bitvectorET0_T1_ @ 1072
;	long ibis::part::doCount<float, std::binder1st<std::less<float> >, std::binder2nd<std::less_equal<float> > >(array_t<float> const&, ibis::bitvector const&, std::binder1st<std::less<float> >, std::binder2nd<std::less_equal<float> >) const
	_ZNK4ibis4part7doCountIfSt9binder1stISt4lessIfEESt9binder2ndISt10less_equalIfEEEElRK7array_tIT_ERKNS_9bitvectorET0_T1_ @ 1073
;	long ibis::part::doCount<float, std::binder1st<std::less<float> >, std::binder2nd<std::greater_equal<float> > >(array_t<float> const&, ibis::bitvector const&, std::binder1st<std::less<float> >, std::binder2nd<std::greater_equal<float> >) const
	_ZNK4ibis4part7doCountIfSt9binder1stISt4lessIfEESt9binder2ndISt13greater_equalIfEEEElRK7array_tIT_ERKNS_9bitvectorET0_T1_ @ 1074
;	long ibis::part::doCount<float, std::binder1st<std::less<float> >, std::binder2nd<std::greater<float> > >(array_t<float> const&, ibis::bitvector const&, std::binder1st<std::less<float> >, std::binder2nd<std::greater<float> >) const
	_ZNK4ibis4part7doCountIfSt9binder1stISt4lessIfEESt9binder2ndISt7greaterIfEEEElRK7array_tIT_ERKNS_9bitvectorET0_T1_ @ 1075
;	long ibis::part::doCount<float, std::binder1st<std::less<float> >, std::binder2nd<std::equal_to<float> > >(array_t<float> const&, ibis::bitvector const&, std::binder1st<std::less<float> >, std::binder2nd<std::equal_to<float> >) const
	_ZNK4ibis4part7doCountIfSt9binder1stISt4lessIfEESt9binder2ndISt8equal_toIfEEEElRK7array_tIT_ERKNS_9bitvectorET0_T1_ @ 1076
;	long ibis::part::doCount<float, std::binder1st<std::greater<float> > >(array_t<float> const&, ibis::bitvector const&, std::binder1st<std::greater<float> >) const
	_ZNK4ibis4part7doCountIfSt9binder1stISt7greaterIfEEEElRK7array_tIT_ERKNS_9bitvectorET0_ @ 1077
;	long ibis::part::doCount<float, std::binder1st<std::greater<float> >, std::binder2nd<std::greater<float> > >(array_t<float> const&, ibis::bitvector const&, std::binder1st<std::greater<float> >, std::binder2nd<std::greater<float> >) const
	_ZNK4ibis4part7doCountIfSt9binder1stISt7greaterIfEESt9binder2ndIS4_EEElRK7array_tIT_ERKNS_9bitvectorET0_T1_ @ 1078
;	long ibis::part::doCount<float, std::binder1st<std::greater<float> >, std::binder2nd<std::less_equal<float> > >(array_t<float> const&, ibis::bitvector const&, std::binder1st<std::greater<float> >, std::binder2nd<std::less_equal<float> >) const
	_ZNK4ibis4part7doCountIfSt9binder1stISt7greaterIfEESt9binder2ndISt10less_equalIfEEEElRK7array_tIT_ERKNS_9bitvectorET0_T1_ @ 1079
;	long ibis::part::doCount<float, std::binder1st<std::greater<float> >, std::binder2nd<std::greater_equal<float> > >(array_t<float> const&, ibis::bitvector const&, std::binder1st<std::greater<float> >, std::binder2nd<std::greater_equal<float> >) const
	_ZNK4ibis4part7doCountIfSt9binder1stISt7greaterIfEESt9binder2ndISt13greater_equalIfEEEElRK7array_tIT_ERKNS_9bitvectorET0_T1_ @ 1080
;	long ibis::part::doCount<float, std::binder1st<std::greater<float> >, std::binder2nd<std::less<float> > >(array_t<float> const&, ibis::bitvector const&, std::binder1st<std::greater<float> >, std::binder2nd<std::less<float> >) const
	_ZNK4ibis4part7doCountIfSt9binder1stISt7greaterIfEESt9binder2ndISt4lessIfEEEElRK7array_tIT_ERKNS_9bitvectorET0_T1_ @ 1081
;	long ibis::part::doCount<float, std::binder1st<std::greater<float> >, std::binder2nd<std::equal_to<float> > >(array_t<float> const&, ibis::bitvector const&, std::binder1st<std::greater<float> >, std::binder2nd<std::equal_to<float> >) const
	_ZNK4ibis4part7doCountIfSt9binder1stISt7greaterIfEESt9binder2ndISt8equal_toIfEEEElRK7array_tIT_ERKNS_9bitvectorET0_T1_ @ 1082
;	long ibis::part::doCount<float, std::binder1st<std::equal_to<float> > >(array_t<float> const&, ibis::bitvector const&, std::binder1st<std::equal_to<float> >) const
	_ZNK4ibis4part7doCountIfSt9binder1stISt8equal_toIfEEEElRK7array_tIT_ERKNS_9bitvectorET0_ @ 1083
;	long ibis::part::doCount<float, std::binder1st<std::equal_to<float> >, std::binder2nd<std::equal_to<float> > >(array_t<float> const&, ibis::bitvector const&, std::binder1st<std::equal_to<float> >, std::binder2nd<std::equal_to<float> >) const
	_ZNK4ibis4part7doCountIfSt9binder1stISt8equal_toIfEESt9binder2ndIS4_EEElRK7array_tIT_ERKNS_9bitvectorET0_T1_ @ 1084
;	long ibis::part::doCount<float, std::binder1st<std::equal_to<float> >, std::binder2nd<std::less_equal<float> > >(array_t<float> const&, ibis::bitvector const&, std::binder1st<std::equal_to<float> >, std::binder2nd<std::less_equal<float> >) const
	_ZNK4ibis4part7doCountIfSt9binder1stISt8equal_toIfEESt9binder2ndISt10less_equalIfEEEElRK7array_tIT_ERKNS_9bitvectorET0_T1_ @ 1085
;	long ibis::part::doCount<float, std::binder1st<std::equal_to<float> >, std::binder2nd<std::greater_equal<float> > >(array_t<float> const&, ibis::bitvector const&, std::binder1st<std::equal_to<float> >, std::binder2nd<std::greater_equal<float> >) const
	_ZNK4ibis4part7doCountIfSt9binder1stISt8equal_toIfEESt9binder2ndISt13greater_equalIfEEEElRK7array_tIT_ERKNS_9bitvectorET0_T1_ @ 1086
;	long ibis::part::doCount<float, std::binder1st<std::equal_to<float> >, std::binder2nd<std::less<float> > >(array_t<float> const&, ibis::bitvector const&, std::binder1st<std::equal_to<float> >, std::binder2nd<std::less<float> >) const
	_ZNK4ibis4part7doCountIfSt9binder1stISt8equal_toIfEESt9binder2ndISt4lessIfEEEElRK7array_tIT_ERKNS_9bitvectorET0_T1_ @ 1087
;	long ibis::part::doCount<float, std::binder1st<std::equal_to<float> >, std::binder2nd<std::greater<float> > >(array_t<float> const&, ibis::bitvector const&, std::binder1st<std::equal_to<float> >, std::binder2nd<std::greater<float> >) const
	_ZNK4ibis4part7doCountIfSt9binder1stISt8equal_toIfEESt9binder2ndISt7greaterIfEEEElRK7array_tIT_ERKNS_9bitvectorET0_T1_ @ 1088
;	long ibis::part::doCount<float, std::binder2nd<std::less_equal<float> > >(array_t<float> const&, ibis::bitvector const&, std::binder2nd<std::less_equal<float> >) const
	_ZNK4ibis4part7doCountIfSt9binder2ndISt10less_equalIfEEEElRK7array_tIT_ERKNS_9bitvectorET0_ @ 1089
;	long ibis::part::doCount<float, std::binder2nd<std::greater_equal<float> > >(array_t<float> const&, ibis::bitvector const&, std::binder2nd<std::greater_equal<float> >) const
	_ZNK4ibis4part7doCountIfSt9binder2ndISt13greater_equalIfEEEElRK7array_tIT_ERKNS_9bitvectorET0_ @ 1090
;	long ibis::part::doCount<float, std::binder2nd<std::less<float> > >(array_t<float> const&, ibis::bitvector const&, std::binder2nd<std::less<float> >) const
	_ZNK4ibis4part7doCountIfSt9binder2ndISt4lessIfEEEElRK7array_tIT_ERKNS_9bitvectorET0_ @ 1091
;	long ibis::part::doCount<float, std::binder2nd<std::greater<float> > >(array_t<float> const&, ibis::bitvector const&, std::binder2nd<std::greater<float> >) const
	_ZNK4ibis4part7doCountIfSt9binder2ndISt7greaterIfEEEElRK7array_tIT_ERKNS_9bitvectorET0_ @ 1092
;	long ibis::part::doCount<float, std::binder2nd<std::equal_to<float> > >(array_t<float> const&, ibis::bitvector const&, std::binder2nd<std::equal_to<float> >) const
	_ZNK4ibis4part7doCountIfSt9binder2ndISt8equal_toIfEEEElRK7array_tIT_ERKNS_9bitvectorET0_ @ 1093
;	long ibis::part::doCount<unsigned char>(array_t<unsigned char> const&, ibis::qRange const&, ibis::bitvector const&) const
	_ZNK4ibis4part7doCountIhEElRK7array_tIT_ERKNS_6qRangeERKNS_9bitvectorE @ 1094
;	long ibis::part::doCount<unsigned char>(ibis::qRange const&) const
	_ZNK4ibis4part7doCountIhEElRKNS_6qRangeE @ 1095
;	long ibis::part::doCount<unsigned char, std::binder1st<std::less_equal<unsigned char> > >(array_t<unsigned char> const&, ibis::bitvector const&, std::binder1st<std::less_equal<unsigned char> >) const
	_ZNK4ibis4part7doCountIhSt9binder1stISt10less_equalIhEEEElRK7array_tIT_ERKNS_9bitvectorET0_ @ 1096
;	long ibis::part::doCount<unsigned char, std::binder1st<std::less_equal<unsigned char> >, std::binder2nd<std::less_equal<unsigned char> > >(array_t<unsigned char> const&, ibis::bitvector const&, std::binder1st<std::less_equal<unsigned char> >, std::binder2nd<std::less_equal<unsigned char> >) const
	_ZNK4ibis4part7doCountIhSt9binder1stISt10less_equalIhEESt9binder2ndIS4_EEElRK7array_tIT_ERKNS_9bitvectorET0_T1_ @ 1097
;	long ibis::part::doCount<unsigned char, std::binder1st<std::less_equal<unsigned char> >, std::binder2nd<std::greater_equal<unsigned char> > >(array_t<unsigned char> const&, ibis::bitvector const&, std::binder1st<std::less_equal<unsigned char> >, std::binder2nd<std::greater_equal<unsigned char> >) const
	_ZNK4ibis4part7doCountIhSt9binder1stISt10less_equalIhEESt9binder2ndISt13greater_equalIhEEEElRK7array_tIT_ERKNS_9bitvectorET0_T1_ @ 1098
;	long ibis::part::doCount<unsigned char, std::binder1st<std::less_equal<unsigned char> >, std::binder2nd<std::less<unsigned char> > >(array_t<unsigned char> const&, ibis::bitvector const&, std::binder1st<std::less_equal<unsigned char> >, std::binder2nd<std::less<unsigned char> >) const
	_ZNK4ibis4part7doCountIhSt9binder1stISt10less_equalIhEESt9binder2ndISt4lessIhEEEElRK7array_tIT_ERKNS_9bitvectorET0_T1_ @ 1099
;	long ibis::part::doCount<unsigned char, std::binder1st<std::less_equal<unsigned char> >, std::binder2nd<std::greater<unsigned char> > >(array_t<unsigned char> const&, ibis::bitvector const&, std::binder1st<std::less_equal<unsigned char> >, std::binder2nd<std::greater<unsigned char> >) const
	_ZNK4ibis4part7doCountIhSt9binder1stISt10less_equalIhEESt9binder2ndISt7greaterIhEEEElRK7array_tIT_ERKNS_9bitvectorET0_T1_ @ 1100
;	long ibis::part::doCount<unsigned char, std::binder1st<std::less_equal<unsigned char> >, std::binder2nd<std::equal_to<unsigned char> > >(array_t<unsigned char> const&, ibis::bitvector const&, std::binder1st<std::less_equal<unsigned char> >, std::binder2nd<std::equal_to<unsigned char> >) const
	_ZNK4ibis4part7doCountIhSt9binder1stISt10less_equalIhEESt9binder2ndISt8equal_toIhEEEElRK7array_tIT_ERKNS_9bitvectorET0_T1_ @ 1101
;	long ibis::part::doCount<unsigned char, std::binder1st<std::greater_equal<unsigned char> > >(array_t<unsigned char> const&, ibis::bitvector const&, std::binder1st<std::greater_equal<unsigned char> >) const
	_ZNK4ibis4part7doCountIhSt9binder1stISt13greater_equalIhEEEElRK7array_tIT_ERKNS_9bitvectorET0_ @ 1102
;	long ibis::part::doCount<unsigned char, std::binder1st<std::greater_equal<unsigned char> >, std::binder2nd<std::greater_equal<unsigned char> > >(array_t<unsigned char> const&, ibis::bitvector const&, std::binder1st<std::greater_equal<unsigned char> >, std::binder2nd<std::greater_equal<unsigned char> >) const
	_ZNK4ibis4part7doCountIhSt9binder1stISt13greater_equalIhEESt9binder2ndIS4_EEElRK7array_tIT_ERKNS_9bitvectorET0_T1_ @ 1103
;	long ibis::part::doCount<unsigned char, std::binder1st<std::greater_equal<unsigned char> >, std::binder2nd<std::less_equal<unsigned char> > >(array_t<unsigned char> const&, ibis::bitvector const&, std::binder1st<std::greater_equal<unsigned char> >, std::binder2nd<std::less_equal<unsigned char> >) const
	_ZNK4ibis4part7doCountIhSt9binder1stISt13greater_equalIhEESt9binder2ndISt10less_equalIhEEEElRK7array_tIT_ERKNS_9bitvectorET0_T1_ @ 1104
;	long ibis::part::doCount<unsigned char, std::binder1st<std::greater_equal<unsigned char> >, std::binder2nd<std::less<unsigned char> > >(array_t<unsigned char> const&, ibis::bitvector const&, std::binder1st<std::greater_equal<unsigned char> >, std::binder2nd<std::less<unsigned char> >) const
	_ZNK4ibis4part7doCountIhSt9binder1stISt13greater_equalIhEESt9binder2ndISt4lessIhEEEElRK7array_tIT_ERKNS_9bitvectorET0_T1_ @ 1105
;	long ibis::part::doCount<unsigned char, std::binder1st<std::greater_equal<unsigned char> >, std::binder2nd<std::greater<unsigned char> > >(array_t<unsigned char> const&, ibis::bitvector const&, std::binder1st<std::greater_equal<unsigned char> >, std::binder2nd<std::greater<unsigned char> >) const
	_ZNK4ibis4part7doCountIhSt9binder1stISt13greater_equalIhEESt9binder2ndISt7greaterIhEEEElRK7array_tIT_ERKNS_9bitvectorET0_T1_ @ 1106
;	long ibis::part::doCount<unsigned char, std::binder1st<std::greater_equal<unsigned char> >, std::binder2nd<std::equal_to<unsigned char> > >(array_t<unsigned char> const&, ibis::bitvector const&, std::binder1st<std::greater_equal<unsigned char> >, std::binder2nd<std::equal_to<unsigned char> >) const
	_ZNK4ibis4part7doCountIhSt9binder1stISt13greater_equalIhEESt9binder2ndISt8equal_toIhEEEElRK7array_tIT_ERKNS_9bitvectorET0_T1_ @ 1107
;	long ibis::part::doCount<unsigned char, std::binder1st<std::less<unsigned char> > >(array_t<unsigned char> const&, ibis::bitvector const&, std::binder1st<std::less<unsigned char> >) const
	_ZNK4ibis4part7doCountIhSt9binder1stISt4lessIhEEEElRK7array_tIT_ERKNS_9bitvectorET0_ @ 1108
;	long ibis::part::doCount<unsigned char, std::binder1st<std::less<unsigned char> >, std::binder2nd<std::less<unsigned char> > >(array_t<unsigned char> const&, ibis::bitvector const&, std::binder1st<std::less<unsigned char> >, std::binder2nd<std::less<unsigned char> >) const
	_ZNK4ibis4part7doCountIhSt9binder1stISt4lessIhEESt9binder2ndIS4_EEElRK7array_tIT_ERKNS_9bitvectorET0_T1_ @ 1109
;	long ibis::part::doCount<unsigned char, std::binder1st<std::less<unsigned char> >, std::binder2nd<std::less_equal<unsigned char> > >(array_t<unsigned char> const&, ibis::bitvector const&, std::binder1st<std::less<unsigned char> >, std::binder2nd<std::less_equal<unsigned char> >) const
	_ZNK4ibis4part7doCountIhSt9binder1stISt4lessIhEESt9binder2ndISt10less_equalIhEEEElRK7array_tIT_ERKNS_9bitvectorET0_T1_ @ 1110
;	long ibis::part::doCount<unsigned char, std::binder1st<std::less<unsigned char> >, std::binder2nd<std::greater_equal<unsigned char> > >(array_t<unsigned char> const&, ibis::bitvector const&, std::binder1st<std::less<unsigned char> >, std::binder2nd<std::greater_equal<unsigned char> >) const
	_ZNK4ibis4part7doCountIhSt9binder1stISt4lessIhEESt9binder2ndISt13greater_equalIhEEEElRK7array_tIT_ERKNS_9bitvectorET0_T1_ @ 1111
;	long ibis::part::doCount<unsigned char, std::binder1st<std::less<unsigned char> >, std::binder2nd<std::greater<unsigned char> > >(array_t<unsigned char> const&, ibis::bitvector const&, std::binder1st<std::less<unsigned char> >, std::binder2nd<std::greater<unsigned char> >) const
	_ZNK4ibis4part7doCountIhSt9binder1stISt4lessIhEESt9binder2ndISt7greaterIhEEEElRK7array_tIT_ERKNS_9bitvectorET0_T1_ @ 1112
;	long ibis::part::doCount<unsigned char, std::binder1st<std::less<unsigned char> >, std::binder2nd<std::equal_to<unsigned char> > >(array_t<unsigned char> const&, ibis::bitvector const&, std::binder1st<std::less<unsigned char> >, std::binder2nd<std::equal_to<unsigned char> >) const
	_ZNK4ibis4part7doCountIhSt9binder1stISt4lessIhEESt9binder2ndISt8equal_toIhEEEElRK7array_tIT_ERKNS_9bitvectorET0_T1_ @ 1113
;	long ibis::part::doCount<unsigned char, std::binder1st<std::greater<unsigned char> > >(array_t<unsigned char> const&, ibis::bitvector const&, std::binder1st<std::greater<unsigned char> >) const
	_ZNK4ibis4part7doCountIhSt9binder1stISt7greaterIhEEEElRK7array_tIT_ERKNS_9bitvectorET0_ @ 1114
;	long ibis::part::doCount<unsigned char, std::binder1st<std::greater<unsigned char> >, std::binder2nd<std::greater<unsigned char> > >(array_t<unsigned char> const&, ibis::bitvector const&, std::binder1st<std::greater<unsigned char> >, std::binder2nd<std::greater<unsigned char> >) const
	_ZNK4ibis4part7doCountIhSt9binder1stISt7greaterIhEESt9binder2ndIS4_EEElRK7array_tIT_ERKNS_9bitvectorET0_T1_ @ 1115
;	long ibis::part::doCount<unsigned char, std::binder1st<std::greater<unsigned char> >, std::binder2nd<std::less_equal<unsigned char> > >(array_t<unsigned char> const&, ibis::bitvector const&, std::binder1st<std::greater<unsigned char> >, std::binder2nd<std::less_equal<unsigned char> >) const
	_ZNK4ibis4part7doCountIhSt9binder1stISt7greaterIhEESt9binder2ndISt10less_equalIhEEEElRK7array_tIT_ERKNS_9bitvectorET0_T1_ @ 1116
;	long ibis::part::doCount<unsigned char, std::binder1st<std::greater<unsigned char> >, std::binder2nd<std::greater_equal<unsigned char> > >(array_t<unsigned char> const&, ibis::bitvector const&, std::binder1st<std::greater<unsigned char> >, std::binder2nd<std::greater_equal<unsigned char> >) const
	_ZNK4ibis4part7doCountIhSt9binder1stISt7greaterIhEESt9binder2ndISt13greater_equalIhEEEElRK7array_tIT_ERKNS_9bitvectorET0_T1_ @ 1117
;	long ibis::part::doCount<unsigned char, std::binder1st<std::greater<unsigned char> >, std::binder2nd<std::less<unsigned char> > >(array_t<unsigned char> const&, ibis::bitvector const&, std::binder1st<std::greater<unsigned char> >, std::binder2nd<std::less<unsigned char> >) const
	_ZNK4ibis4part7doCountIhSt9binder1stISt7greaterIhEESt9binder2ndISt4lessIhEEEElRK7array_tIT_ERKNS_9bitvectorET0_T1_ @ 1118
;	long ibis::part::doCount<unsigned char, std::binder1st<std::greater<unsigned char> >, std::binder2nd<std::equal_to<unsigned char> > >(array_t<unsigned char> const&, ibis::bitvector const&, std::binder1st<std::greater<unsigned char> >, std::binder2nd<std::equal_to<unsigned char> >) const
	_ZNK4ibis4part7doCountIhSt9binder1stISt7greaterIhEESt9binder2ndISt8equal_toIhEEEElRK7array_tIT_ERKNS_9bitvectorET0_T1_ @ 1119
;	long ibis::part::doCount<unsigned char, std::binder1st<std::equal_to<unsigned char> > >(array_t<unsigned char> const&, ibis::bitvector const&, std::binder1st<std::equal_to<unsigned char> >) const
	_ZNK4ibis4part7doCountIhSt9binder1stISt8equal_toIhEEEElRK7array_tIT_ERKNS_9bitvectorET0_ @ 1120
;	long ibis::part::doCount<unsigned char, std::binder1st<std::equal_to<unsigned char> >, std::binder2nd<std::equal_to<unsigned char> > >(array_t<unsigned char> const&, ibis::bitvector const&, std::binder1st<std::equal_to<unsigned char> >, std::binder2nd<std::equal_to<unsigned char> >) const
	_ZNK4ibis4part7doCountIhSt9binder1stISt8equal_toIhEESt9binder2ndIS4_EEElRK7array_tIT_ERKNS_9bitvectorET0_T1_ @ 1121
;	long ibis::part::doCount<unsigned char, std::binder1st<std::equal_to<unsigned char> >, std::binder2nd<std::less_equal<unsigned char> > >(array_t<unsigned char> const&, ibis::bitvector const&, std::binder1st<std::equal_to<unsigned char> >, std::binder2nd<std::less_equal<unsigned char> >) const
	_ZNK4ibis4part7doCountIhSt9binder1stISt8equal_toIhEESt9binder2ndISt10less_equalIhEEEElRK7array_tIT_ERKNS_9bitvectorET0_T1_ @ 1122
;	long ibis::part::doCount<unsigned char, std::binder1st<std::equal_to<unsigned char> >, std::binder2nd<std::greater_equal<unsigned char> > >(array_t<unsigned char> const&, ibis::bitvector const&, std::binder1st<std::equal_to<unsigned char> >, std::binder2nd<std::greater_equal<unsigned char> >) const
	_ZNK4ibis4part7doCountIhSt9binder1stISt8equal_toIhEESt9binder2ndISt13greater_equalIhEEEElRK7array_tIT_ERKNS_9bitvectorET0_T1_ @ 1123
;	long ibis::part::doCount<unsigned char, std::binder1st<std::equal_to<unsigned char> >, std::binder2nd<std::less<unsigned char> > >(array_t<unsigned char> const&, ibis::bitvector const&, std::binder1st<std::equal_to<unsigned char> >, std::binder2nd<std::less<unsigned char> >) const
	_ZNK4ibis4part7doCountIhSt9binder1stISt8equal_toIhEESt9binder2ndISt4lessIhEEEElRK7array_tIT_ERKNS_9bitvectorET0_T1_ @ 1124
;	long ibis::part::doCount<unsigned char, std::binder1st<std::equal_to<unsigned char> >, std::binder2nd<std::greater<unsigned char> > >(array_t<unsigned char> const&, ibis::bitvector const&, std::binder1st<std::equal_to<unsigned char> >, std::binder2nd<std::greater<unsigned char> >) const
	_ZNK4ibis4part7doCountIhSt9binder1stISt8equal_toIhEESt9binder2ndISt7greaterIhEEEElRK7array_tIT_ERKNS_9bitvectorET0_T1_ @ 1125
;	long ibis::part::doCount<unsigned char, std::binder2nd<std::less_equal<unsigned char> > >(array_t<unsigned char> const&, ibis::bitvector const&, std::binder2nd<std::less_equal<unsigned char> >) const
	_ZNK4ibis4part7doCountIhSt9binder2ndISt10less_equalIhEEEElRK7array_tIT_ERKNS_9bitvectorET0_ @ 1126
;	long ibis::part::doCount<unsigned char, std::binder2nd<std::greater_equal<unsigned char> > >(array_t<unsigned char> const&, ibis::bitvector const&, std::binder2nd<std::greater_equal<unsigned char> >) const
	_ZNK4ibis4part7doCountIhSt9binder2ndISt13greater_equalIhEEEElRK7array_tIT_ERKNS_9bitvectorET0_ @ 1127
;	long ibis::part::doCount<unsigned char, std::binder2nd<std::less<unsigned char> > >(array_t<unsigned char> const&, ibis::bitvector const&, std::binder2nd<std::less<unsigned char> >) const
	_ZNK4ibis4part7doCountIhSt9binder2ndISt4lessIhEEEElRK7array_tIT_ERKNS_9bitvectorET0_ @ 1128
;	long ibis::part::doCount<unsigned char, std::binder2nd<std::greater<unsigned char> > >(array_t<unsigned char> const&, ibis::bitvector const&, std::binder2nd<std::greater<unsigned char> >) const
	_ZNK4ibis4part7doCountIhSt9binder2ndISt7greaterIhEEEElRK7array_tIT_ERKNS_9bitvectorET0_ @ 1129
;	long ibis::part::doCount<unsigned char, std::binder2nd<std::equal_to<unsigned char> > >(array_t<unsigned char> const&, ibis::bitvector const&, std::binder2nd<std::equal_to<unsigned char> >) const
	_ZNK4ibis4part7doCountIhSt9binder2ndISt8equal_toIhEEEElRK7array_tIT_ERKNS_9bitvectorET0_ @ 1130
;	long ibis::part::doCount<long>(array_t<long> const&, ibis::qRange const&, ibis::bitvector const&) const
	_ZNK4ibis4part7doCountIlEElRK7array_tIT_ERKNS_6qRangeERKNS_9bitvectorE @ 1131
;	long ibis::part::doCount<long>(ibis::qRange const&) const
	_ZNK4ibis4part7doCountIlEElRKNS_6qRangeE @ 1132
;	long ibis::part::doCount<long, std::binder1st<std::less_equal<long> > >(array_t<long> const&, ibis::bitvector const&, std::binder1st<std::less_equal<long> >) const
	_ZNK4ibis4part7doCountIlSt9binder1stISt10less_equalIlEEEElRK7array_tIT_ERKNS_9bitvectorET0_ @ 1133
;	long ibis::part::doCount<long, std::binder1st<std::less_equal<long> >, std::binder2nd<std::less_equal<long> > >(array_t<long> const&, ibis::bitvector const&, std::binder1st<std::less_equal<long> >, std::binder2nd<std::less_equal<long> >) const
	_ZNK4ibis4part7doCountIlSt9binder1stISt10less_equalIlEESt9binder2ndIS4_EEElRK7array_tIT_ERKNS_9bitvectorET0_T1_ @ 1134
;	long ibis::part::doCount<long, std::binder1st<std::less_equal<long> >, std::binder2nd<std::greater_equal<long> > >(array_t<long> const&, ibis::bitvector const&, std::binder1st<std::less_equal<long> >, std::binder2nd<std::greater_equal<long> >) const
	_ZNK4ibis4part7doCountIlSt9binder1stISt10less_equalIlEESt9binder2ndISt13greater_equalIlEEEElRK7array_tIT_ERKNS_9bitvectorET0_T1_ @ 1135
;	long ibis::part::doCount<long, std::binder1st<std::less_equal<long> >, std::binder2nd<std::less<long> > >(array_t<long> const&, ibis::bitvector const&, std::binder1st<std::less_equal<long> >, std::binder2nd<std::less<long> >) const
	_ZNK4ibis4part7doCountIlSt9binder1stISt10less_equalIlEESt9binder2ndISt4lessIlEEEElRK7array_tIT_ERKNS_9bitvectorET0_T1_ @ 1136
;	long ibis::part::doCount<long, std::binder1st<std::less_equal<long> >, std::binder2nd<std::greater<long> > >(array_t<long> const&, ibis::bitvector const&, std::binder1st<std::less_equal<long> >, std::binder2nd<std::greater<long> >) const
	_ZNK4ibis4part7doCountIlSt9binder1stISt10less_equalIlEESt9binder2ndISt7greaterIlEEEElRK7array_tIT_ERKNS_9bitvectorET0_T1_ @ 1137
;	long ibis::part::doCount<long, std::binder1st<std::less_equal<long> >, std::binder2nd<std::equal_to<long> > >(array_t<long> const&, ibis::bitvector const&, std::binder1st<std::less_equal<long> >, std::binder2nd<std::equal_to<long> >) const
	_ZNK4ibis4part7doCountIlSt9binder1stISt10less_equalIlEESt9binder2ndISt8equal_toIlEEEElRK7array_tIT_ERKNS_9bitvectorET0_T1_ @ 1138
;	long ibis::part::doCount<long, std::binder1st<std::greater_equal<long> > >(array_t<long> const&, ibis::bitvector const&, std::binder1st<std::greater_equal<long> >) const
	_ZNK4ibis4part7doCountIlSt9binder1stISt13greater_equalIlEEEElRK7array_tIT_ERKNS_9bitvectorET0_ @ 1139
;	long ibis::part::doCount<long, std::binder1st<std::greater_equal<long> >, std::binder2nd<std::greater_equal<long> > >(array_t<long> const&, ibis::bitvector const&, std::binder1st<std::greater_equal<long> >, std::binder2nd<std::greater_equal<long> >) const
	_ZNK4ibis4part7doCountIlSt9binder1stISt13greater_equalIlEESt9binder2ndIS4_EEElRK7array_tIT_ERKNS_9bitvectorET0_T1_ @ 1140
;	long ibis::part::doCount<long, std::binder1st<std::greater_equal<long> >, std::binder2nd<std::less_equal<long> > >(array_t<long> const&, ibis::bitvector const&, std::binder1st<std::greater_equal<long> >, std::binder2nd<std::less_equal<long> >) const
	_ZNK4ibis4part7doCountIlSt9binder1stISt13greater_equalIlEESt9binder2ndISt10less_equalIlEEEElRK7array_tIT_ERKNS_9bitvectorET0_T1_ @ 1141
;	long ibis::part::doCount<long, std::binder1st<std::greater_equal<long> >, std::binder2nd<std::less<long> > >(array_t<long> const&, ibis::bitvector const&, std::binder1st<std::greater_equal<long> >, std::binder2nd<std::less<long> >) const
	_ZNK4ibis4part7doCountIlSt9binder1stISt13greater_equalIlEESt9binder2ndISt4lessIlEEEElRK7array_tIT_ERKNS_9bitvectorET0_T1_ @ 1142
;	long ibis::part::doCount<long, std::binder1st<std::greater_equal<long> >, std::binder2nd<std::greater<long> > >(array_t<long> const&, ibis::bitvector const&, std::binder1st<std::greater_equal<long> >, std::binder2nd<std::greater<long> >) const
	_ZNK4ibis4part7doCountIlSt9binder1stISt13greater_equalIlEESt9binder2ndISt7greaterIlEEEElRK7array_tIT_ERKNS_9bitvectorET0_T1_ @ 1143
;	long ibis::part::doCount<long, std::binder1st<std::greater_equal<long> >, std::binder2nd<std::equal_to<long> > >(array_t<long> const&, ibis::bitvector const&, std::binder1st<std::greater_equal<long> >, std::binder2nd<std::equal_to<long> >) const
	_ZNK4ibis4part7doCountIlSt9binder1stISt13greater_equalIlEESt9binder2ndISt8equal_toIlEEEElRK7array_tIT_ERKNS_9bitvectorET0_T1_ @ 1144
;	long ibis::part::doCount<long, std::binder1st<std::less<long> > >(array_t<long> const&, ibis::bitvector const&, std::binder1st<std::less<long> >) const
	_ZNK4ibis4part7doCountIlSt9binder1stISt4lessIlEEEElRK7array_tIT_ERKNS_9bitvectorET0_ @ 1145
;	long ibis::part::doCount<long, std::binder1st<std::less<long> >, std::binder2nd<std::less<long> > >(array_t<long> const&, ibis::bitvector const&, std::binder1st<std::less<long> >, std::binder2nd<std::less<long> >) const
	_ZNK4ibis4part7doCountIlSt9binder1stISt4lessIlEESt9binder2ndIS4_EEElRK7array_tIT_ERKNS_9bitvectorET0_T1_ @ 1146
;	long ibis::part::doCount<long, std::binder1st<std::less<long> >, std::binder2nd<std::less_equal<long> > >(array_t<long> const&, ibis::bitvector const&, std::binder1st<std::less<long> >, std::binder2nd<std::less_equal<long> >) const
	_ZNK4ibis4part7doCountIlSt9binder1stISt4lessIlEESt9binder2ndISt10less_equalIlEEEElRK7array_tIT_ERKNS_9bitvectorET0_T1_ @ 1147
;	long ibis::part::doCount<long, std::binder1st<std::less<long> >, std::binder2nd<std::greater_equal<long> > >(array_t<long> const&, ibis::bitvector const&, std::binder1st<std::less<long> >, std::binder2nd<std::greater_equal<long> >) const
	_ZNK4ibis4part7doCountIlSt9binder1stISt4lessIlEESt9binder2ndISt13greater_equalIlEEEElRK7array_tIT_ERKNS_9bitvectorET0_T1_ @ 1148
;	long ibis::part::doCount<long, std::binder1st<std::less<long> >, std::binder2nd<std::greater<long> > >(array_t<long> const&, ibis::bitvector const&, std::binder1st<std::less<long> >, std::binder2nd<std::greater<long> >) const
	_ZNK4ibis4part7doCountIlSt9binder1stISt4lessIlEESt9binder2ndISt7greaterIlEEEElRK7array_tIT_ERKNS_9bitvectorET0_T1_ @ 1149
;	long ibis::part::doCount<long, std::binder1st<std::less<long> >, std::binder2nd<std::equal_to<long> > >(array_t<long> const&, ibis::bitvector const&, std::binder1st<std::less<long> >, std::binder2nd<std::equal_to<long> >) const
	_ZNK4ibis4part7doCountIlSt9binder1stISt4lessIlEESt9binder2ndISt8equal_toIlEEEElRK7array_tIT_ERKNS_9bitvectorET0_T1_ @ 1150
;	long ibis::part::doCount<long, std::binder1st<std::greater<long> > >(array_t<long> const&, ibis::bitvector const&, std::binder1st<std::greater<long> >) const
	_ZNK4ibis4part7doCountIlSt9binder1stISt7greaterIlEEEElRK7array_tIT_ERKNS_9bitvectorET0_ @ 1151
;	long ibis::part::doCount<long, std::binder1st<std::greater<long> >, std::binder2nd<std::greater<long> > >(array_t<long> const&, ibis::bitvector const&, std::binder1st<std::greater<long> >, std::binder2nd<std::greater<long> >) const
	_ZNK4ibis4part7doCountIlSt9binder1stISt7greaterIlEESt9binder2ndIS4_EEElRK7array_tIT_ERKNS_9bitvectorET0_T1_ @ 1152
;	long ibis::part::doCount<long, std::binder1st<std::greater<long> >, std::binder2nd<std::less_equal<long> > >(array_t<long> const&, ibis::bitvector const&, std::binder1st<std::greater<long> >, std::binder2nd<std::less_equal<long> >) const
	_ZNK4ibis4part7doCountIlSt9binder1stISt7greaterIlEESt9binder2ndISt10less_equalIlEEEElRK7array_tIT_ERKNS_9bitvectorET0_T1_ @ 1153
;	long ibis::part::doCount<long, std::binder1st<std::greater<long> >, std::binder2nd<std::greater_equal<long> > >(array_t<long> const&, ibis::bitvector const&, std::binder1st<std::greater<long> >, std::binder2nd<std::greater_equal<long> >) const
	_ZNK4ibis4part7doCountIlSt9binder1stISt7greaterIlEESt9binder2ndISt13greater_equalIlEEEElRK7array_tIT_ERKNS_9bitvectorET0_T1_ @ 1154
;	long ibis::part::doCount<long, std::binder1st<std::greater<long> >, std::binder2nd<std::less<long> > >(array_t<long> const&, ibis::bitvector const&, std::binder1st<std::greater<long> >, std::binder2nd<std::less<long> >) const
	_ZNK4ibis4part7doCountIlSt9binder1stISt7greaterIlEESt9binder2ndISt4lessIlEEEElRK7array_tIT_ERKNS_9bitvectorET0_T1_ @ 1155
;	long ibis::part::doCount<long, std::binder1st<std::greater<long> >, std::binder2nd<std::equal_to<long> > >(array_t<long> const&, ibis::bitvector const&, std::binder1st<std::greater<long> >, std::binder2nd<std::equal_to<long> >) const
	_ZNK4ibis4part7doCountIlSt9binder1stISt7greaterIlEESt9binder2ndISt8equal_toIlEEEElRK7array_tIT_ERKNS_9bitvectorET0_T1_ @ 1156
;	long ibis::part::doCount<long, std::binder1st<std::equal_to<long> > >(array_t<long> const&, ibis::bitvector const&, std::binder1st<std::equal_to<long> >) const
	_ZNK4ibis4part7doCountIlSt9binder1stISt8equal_toIlEEEElRK7array_tIT_ERKNS_9bitvectorET0_ @ 1157
;	long ibis::part::doCount<long, std::binder1st<std::equal_to<long> >, std::binder2nd<std::equal_to<long> > >(array_t<long> const&, ibis::bitvector const&, std::binder1st<std::equal_to<long> >, std::binder2nd<std::equal_to<long> >) const
	_ZNK4ibis4part7doCountIlSt9binder1stISt8equal_toIlEESt9binder2ndIS4_EEElRK7array_tIT_ERKNS_9bitvectorET0_T1_ @ 1158
;	long ibis::part::doCount<long, std::binder1st<std::equal_to<long> >, std::binder2nd<std::less_equal<long> > >(array_t<long> const&, ibis::bitvector const&, std::binder1st<std::equal_to<long> >, std::binder2nd<std::less_equal<long> >) const
	_ZNK4ibis4part7doCountIlSt9binder1stISt8equal_toIlEESt9binder2ndISt10less_equalIlEEEElRK7array_tIT_ERKNS_9bitvectorET0_T1_ @ 1159
;	long ibis::part::doCount<long, std::binder1st<std::equal_to<long> >, std::binder2nd<std::greater_equal<long> > >(array_t<long> const&, ibis::bitvector const&, std::binder1st<std::equal_to<long> >, std::binder2nd<std::greater_equal<long> >) const
	_ZNK4ibis4part7doCountIlSt9binder1stISt8equal_toIlEESt9binder2ndISt13greater_equalIlEEEElRK7array_tIT_ERKNS_9bitvectorET0_T1_ @ 1160
;	long ibis::part::doCount<long, std::binder1st<std::equal_to<long> >, std::binder2nd<std::less<long> > >(array_t<long> const&, ibis::bitvector const&, std::binder1st<std::equal_to<long> >, std::binder2nd<std::less<long> >) const
	_ZNK4ibis4part7doCountIlSt9binder1stISt8equal_toIlEESt9binder2ndISt4lessIlEEEElRK7array_tIT_ERKNS_9bitvectorET0_T1_ @ 1161
;	long ibis::part::doCount<long, std::binder1st<std::equal_to<long> >, std::binder2nd<std::greater<long> > >(array_t<long> const&, ibis::bitvector const&, std::binder1st<std::equal_to<long> >, std::binder2nd<std::greater<long> >) const
	_ZNK4ibis4part7doCountIlSt9binder1stISt8equal_toIlEESt9binder2ndISt7greaterIlEEEElRK7array_tIT_ERKNS_9bitvectorET0_T1_ @ 1162
;	long ibis::part::doCount<long, std::binder2nd<std::less_equal<long> > >(array_t<long> const&, ibis::bitvector const&, std::binder2nd<std::less_equal<long> >) const
	_ZNK4ibis4part7doCountIlSt9binder2ndISt10less_equalIlEEEElRK7array_tIT_ERKNS_9bitvectorET0_ @ 1163
;	long ibis::part::doCount<long, std::binder2nd<std::greater_equal<long> > >(array_t<long> const&, ibis::bitvector const&, std::binder2nd<std::greater_equal<long> >) const
	_ZNK4ibis4part7doCountIlSt9binder2ndISt13greater_equalIlEEEElRK7array_tIT_ERKNS_9bitvectorET0_ @ 1164
;	long ibis::part::doCount<long, std::binder2nd<std::less<long> > >(array_t<long> const&, ibis::bitvector const&, std::binder2nd<std::less<long> >) const
	_ZNK4ibis4part7doCountIlSt9binder2ndISt4lessIlEEEElRK7array_tIT_ERKNS_9bitvectorET0_ @ 1165
;	long ibis::part::doCount<long, std::binder2nd<std::greater<long> > >(array_t<long> const&, ibis::bitvector const&, std::binder2nd<std::greater<long> >) const
	_ZNK4ibis4part7doCountIlSt9binder2ndISt7greaterIlEEEElRK7array_tIT_ERKNS_9bitvectorET0_ @ 1166
;	long ibis::part::doCount<long, std::binder2nd<std::equal_to<long> > >(array_t<long> const&, ibis::bitvector const&, std::binder2nd<std::equal_to<long> >) const
	_ZNK4ibis4part7doCountIlSt9binder2ndISt8equal_toIlEEEElRK7array_tIT_ERKNS_9bitvectorET0_ @ 1167
;	long ibis::part::doCount<unsigned long>(array_t<unsigned long> const&, ibis::qRange const&, ibis::bitvector const&) const
	_ZNK4ibis4part7doCountImEElRK7array_tIT_ERKNS_6qRangeERKNS_9bitvectorE @ 1168
;	long ibis::part::doCount<unsigned long>(ibis::qRange const&) const
	_ZNK4ibis4part7doCountImEElRKNS_6qRangeE @ 1169
;	long ibis::part::doCount<unsigned long, std::binder1st<std::less_equal<unsigned long> > >(array_t<unsigned long> const&, ibis::bitvector const&, std::binder1st<std::less_equal<unsigned long> >) const
	_ZNK4ibis4part7doCountImSt9binder1stISt10less_equalImEEEElRK7array_tIT_ERKNS_9bitvectorET0_ @ 1170
;	long ibis::part::doCount<unsigned long, std::binder1st<std::less_equal<unsigned long> >, std::binder2nd<std::less_equal<unsigned long> > >(array_t<unsigned long> const&, ibis::bitvector const&, std::binder1st<std::less_equal<unsigned long> >, std::binder2nd<std::less_equal<unsigned long> >) const
	_ZNK4ibis4part7doCountImSt9binder1stISt10less_equalImEESt9binder2ndIS4_EEElRK7array_tIT_ERKNS_9bitvectorET0_T1_ @ 1171
;	long ibis::part::doCount<unsigned long, std::binder1st<std::less_equal<unsigned long> >, std::binder2nd<std::greater_equal<unsigned long> > >(array_t<unsigned long> const&, ibis::bitvector const&, std::binder1st<std::less_equal<unsigned long> >, std::binder2nd<std::greater_equal<unsigned long> >) const
	_ZNK4ibis4part7doCountImSt9binder1stISt10less_equalImEESt9binder2ndISt13greater_equalImEEEElRK7array_tIT_ERKNS_9bitvectorET0_T1_ @ 1172
;	long ibis::part::doCount<unsigned long, std::binder1st<std::less_equal<unsigned long> >, std::binder2nd<std::less<unsigned long> > >(array_t<unsigned long> const&, ibis::bitvector const&, std::binder1st<std::less_equal<unsigned long> >, std::binder2nd<std::less<unsigned long> >) const
	_ZNK4ibis4part7doCountImSt9binder1stISt10less_equalImEESt9binder2ndISt4lessImEEEElRK7array_tIT_ERKNS_9bitvectorET0_T1_ @ 1173
;	long ibis::part::doCount<unsigned long, std::binder1st<std::less_equal<unsigned long> >, std::binder2nd<std::greater<unsigned long> > >(array_t<unsigned long> const&, ibis::bitvector const&, std::binder1st<std::less_equal<unsigned long> >, std::binder2nd<std::greater<unsigned long> >) const
	_ZNK4ibis4part7doCountImSt9binder1stISt10less_equalImEESt9binder2ndISt7greaterImEEEElRK7array_tIT_ERKNS_9bitvectorET0_T1_ @ 1174
;	long ibis::part::doCount<unsigned long, std::binder1st<std::less_equal<unsigned long> >, std::binder2nd<std::equal_to<unsigned long> > >(array_t<unsigned long> const&, ibis::bitvector const&, std::binder1st<std::less_equal<unsigned long> >, std::binder2nd<std::equal_to<unsigned long> >) const
	_ZNK4ibis4part7doCountImSt9binder1stISt10less_equalImEESt9binder2ndISt8equal_toImEEEElRK7array_tIT_ERKNS_9bitvectorET0_T1_ @ 1175
;	long ibis::part::doCount<unsigned long, std::binder1st<std::greater_equal<unsigned long> > >(array_t<unsigned long> const&, ibis::bitvector const&, std::binder1st<std::greater_equal<unsigned long> >) const
	_ZNK4ibis4part7doCountImSt9binder1stISt13greater_equalImEEEElRK7array_tIT_ERKNS_9bitvectorET0_ @ 1176
;	long ibis::part::doCount<unsigned long, std::binder1st<std::greater_equal<unsigned long> >, std::binder2nd<std::greater_equal<unsigned long> > >(array_t<unsigned long> const&, ibis::bitvector const&, std::binder1st<std::greater_equal<unsigned long> >, std::binder2nd<std::greater_equal<unsigned long> >) const
	_ZNK4ibis4part7doCountImSt9binder1stISt13greater_equalImEESt9binder2ndIS4_EEElRK7array_tIT_ERKNS_9bitvectorET0_T1_ @ 1177
;	long ibis::part::doCount<unsigned long, std::binder1st<std::greater_equal<unsigned long> >, std::binder2nd<std::less_equal<unsigned long> > >(array_t<unsigned long> const&, ibis::bitvector const&, std::binder1st<std::greater_equal<unsigned long> >, std::binder2nd<std::less_equal<unsigned long> >) const
	_ZNK4ibis4part7doCountImSt9binder1stISt13greater_equalImEESt9binder2ndISt10less_equalImEEEElRK7array_tIT_ERKNS_9bitvectorET0_T1_ @ 1178
;	long ibis::part::doCount<unsigned long, std::binder1st<std::greater_equal<unsigned long> >, std::binder2nd<std::less<unsigned long> > >(array_t<unsigned long> const&, ibis::bitvector const&, std::binder1st<std::greater_equal<unsigned long> >, std::binder2nd<std::less<unsigned long> >) const
	_ZNK4ibis4part7doCountImSt9binder1stISt13greater_equalImEESt9binder2ndISt4lessImEEEElRK7array_tIT_ERKNS_9bitvectorET0_T1_ @ 1179
;	long ibis::part::doCount<unsigned long, std::binder1st<std::greater_equal<unsigned long> >, std::binder2nd<std::greater<unsigned long> > >(array_t<unsigned long> const&, ibis::bitvector const&, std::binder1st<std::greater_equal<unsigned long> >, std::binder2nd<std::greater<unsigned long> >) const
	_ZNK4ibis4part7doCountImSt9binder1stISt13greater_equalImEESt9binder2ndISt7greaterImEEEElRK7array_tIT_ERKNS_9bitvectorET0_T1_ @ 1180
;	long ibis::part::doCount<unsigned long, std::binder1st<std::greater_equal<unsigned long> >, std::binder2nd<std::equal_to<unsigned long> > >(array_t<unsigned long> const&, ibis::bitvector const&, std::binder1st<std::greater_equal<unsigned long> >, std::binder2nd<std::equal_to<unsigned long> >) const
	_ZNK4ibis4part7doCountImSt9binder1stISt13greater_equalImEESt9binder2ndISt8equal_toImEEEElRK7array_tIT_ERKNS_9bitvectorET0_T1_ @ 1181
;	long ibis::part::doCount<unsigned long, std::binder1st<std::less<unsigned long> > >(array_t<unsigned long> const&, ibis::bitvector const&, std::binder1st<std::less<unsigned long> >) const
	_ZNK4ibis4part7doCountImSt9binder1stISt4lessImEEEElRK7array_tIT_ERKNS_9bitvectorET0_ @ 1182
;	long ibis::part::doCount<unsigned long, std::binder1st<std::less<unsigned long> >, std::binder2nd<std::less<unsigned long> > >(array_t<unsigned long> const&, ibis::bitvector const&, std::binder1st<std::less<unsigned long> >, std::binder2nd<std::less<unsigned long> >) const
	_ZNK4ibis4part7doCountImSt9binder1stISt4lessImEESt9binder2ndIS4_EEElRK7array_tIT_ERKNS_9bitvectorET0_T1_ @ 1183
;	long ibis::part::doCount<unsigned long, std::binder1st<std::less<unsigned long> >, std::binder2nd<std::less_equal<unsigned long> > >(array_t<unsigned long> const&, ibis::bitvector const&, std::binder1st<std::less<unsigned long> >, std::binder2nd<std::less_equal<unsigned long> >) const
	_ZNK4ibis4part7doCountImSt9binder1stISt4lessImEESt9binder2ndISt10less_equalImEEEElRK7array_tIT_ERKNS_9bitvectorET0_T1_ @ 1184
;	long ibis::part::doCount<unsigned long, std::binder1st<std::less<unsigned long> >, std::binder2nd<std::greater_equal<unsigned long> > >(array_t<unsigned long> const&, ibis::bitvector const&, std::binder1st<std::less<unsigned long> >, std::binder2nd<std::greater_equal<unsigned long> >) const
	_ZNK4ibis4part7doCountImSt9binder1stISt4lessImEESt9binder2ndISt13greater_equalImEEEElRK7array_tIT_ERKNS_9bitvectorET0_T1_ @ 1185
;	long ibis::part::doCount<unsigned long, std::binder1st<std::less<unsigned long> >, std::binder2nd<std::greater<unsigned long> > >(array_t<unsigned long> const&, ibis::bitvector const&, std::binder1st<std::less<unsigned long> >, std::binder2nd<std::greater<unsigned long> >) const
	_ZNK4ibis4part7doCountImSt9binder1stISt4lessImEESt9binder2ndISt7greaterImEEEElRK7array_tIT_ERKNS_9bitvectorET0_T1_ @ 1186
;	long ibis::part::doCount<unsigned long, std::binder1st<std::less<unsigned long> >, std::binder2nd<std::equal_to<unsigned long> > >(array_t<unsigned long> const&, ibis::bitvector const&, std::binder1st<std::less<unsigned long> >, std::binder2nd<std::equal_to<unsigned long> >) const
	_ZNK4ibis4part7doCountImSt9binder1stISt4lessImEESt9binder2ndISt8equal_toImEEEElRK7array_tIT_ERKNS_9bitvectorET0_T1_ @ 1187
;	long ibis::part::doCount<unsigned long, std::binder1st<std::greater<unsigned long> > >(array_t<unsigned long> const&, ibis::bitvector const&, std::binder1st<std::greater<unsigned long> >) const
	_ZNK4ibis4part7doCountImSt9binder1stISt7greaterImEEEElRK7array_tIT_ERKNS_9bitvectorET0_ @ 1188
;	long ibis::part::doCount<unsigned long, std::binder1st<std::greater<unsigned long> >, std::binder2nd<std::greater<unsigned long> > >(array_t<unsigned long> const&, ibis::bitvector const&, std::binder1st<std::greater<unsigned long> >, std::binder2nd<std::greater<unsigned long> >) const
	_ZNK4ibis4part7doCountImSt9binder1stISt7greaterImEESt9binder2ndIS4_EEElRK7array_tIT_ERKNS_9bitvectorET0_T1_ @ 1189
;	long ibis::part::doCount<unsigned long, std::binder1st<std::greater<unsigned long> >, std::binder2nd<std::less_equal<unsigned long> > >(array_t<unsigned long> const&, ibis::bitvector const&, std::binder1st<std::greater<unsigned long> >, std::binder2nd<std::less_equal<unsigned long> >) const
	_ZNK4ibis4part7doCountImSt9binder1stISt7greaterImEESt9binder2ndISt10less_equalImEEEElRK7array_tIT_ERKNS_9bitvectorET0_T1_ @ 1190
;	long ibis::part::doCount<unsigned long, std::binder1st<std::greater<unsigned long> >, std::binder2nd<std::greater_equal<unsigned long> > >(array_t<unsigned long> const&, ibis::bitvector const&, std::binder1st<std::greater<unsigned long> >, std::binder2nd<std::greater_equal<unsigned long> >) const
	_ZNK4ibis4part7doCountImSt9binder1stISt7greaterImEESt9binder2ndISt13greater_equalImEEEElRK7array_tIT_ERKNS_9bitvectorET0_T1_ @ 1191
;	long ibis::part::doCount<unsigned long, std::binder1st<std::greater<unsigned long> >, std::binder2nd<std::less<unsigned long> > >(array_t<unsigned long> const&, ibis::bitvector const&, std::binder1st<std::greater<unsigned long> >, std::binder2nd<std::less<unsigned long> >) const
	_ZNK4ibis4part7doCountImSt9binder1stISt7greaterImEESt9binder2ndISt4lessImEEEElRK7array_tIT_ERKNS_9bitvectorET0_T1_ @ 1192
;	long ibis::part::doCount<unsigned long, std::binder1st<std::greater<unsigned long> >, std::binder2nd<std::equal_to<unsigned long> > >(array_t<unsigned long> const&, ibis::bitvector const&, std::binder1st<std::greater<unsigned long> >, std::binder2nd<std::equal_to<unsigned long> >) const
	_ZNK4ibis4part7doCountImSt9binder1stISt7greaterImEESt9binder2ndISt8equal_toImEEEElRK7array_tIT_ERKNS_9bitvectorET0_T1_ @ 1193
;	long ibis::part::doCount<unsigned long, std::binder1st<std::equal_to<unsigned long> > >(array_t<unsigned long> const&, ibis::bitvector const&, std::binder1st<std::equal_to<unsigned long> >) const
	_ZNK4ibis4part7doCountImSt9binder1stISt8equal_toImEEEElRK7array_tIT_ERKNS_9bitvectorET0_ @ 1194
;	long ibis::part::doCount<unsigned long, std::binder1st<std::equal_to<unsigned long> >, std::binder2nd<std::equal_to<unsigned long> > >(array_t<unsigned long> const&, ibis::bitvector const&, std::binder1st<std::equal_to<unsigned long> >, std::binder2nd<std::equal_to<unsigned long> >) const
	_ZNK4ibis4part7doCountImSt9binder1stISt8equal_toImEESt9binder2ndIS4_EEElRK7array_tIT_ERKNS_9bitvectorET0_T1_ @ 1195
;	long ibis::part::doCount<unsigned long, std::binder1st<std::equal_to<unsigned long> >, std::binder2nd<std::less_equal<unsigned long> > >(array_t<unsigned long> const&, ibis::bitvector const&, std::binder1st<std::equal_to<unsigned long> >, std::binder2nd<std::less_equal<unsigned long> >) const
	_ZNK4ibis4part7doCountImSt9binder1stISt8equal_toImEESt9binder2ndISt10less_equalImEEEElRK7array_tIT_ERKNS_9bitvectorET0_T1_ @ 1196
;	long ibis::part::doCount<unsigned long, std::binder1st<std::equal_to<unsigned long> >, std::binder2nd<std::greater_equal<unsigned long> > >(array_t<unsigned long> const&, ibis::bitvector const&, std::binder1st<std::equal_to<unsigned long> >, std::binder2nd<std::greater_equal<unsigned long> >) const
	_ZNK4ibis4part7doCountImSt9binder1stISt8equal_toImEESt9binder2ndISt13greater_equalImEEEElRK7array_tIT_ERKNS_9bitvectorET0_T1_ @ 1197
;	long ibis::part::doCount<unsigned long, std::binder1st<std::equal_to<unsigned long> >, std::binder2nd<std::less<unsigned long> > >(array_t<unsigned long> const&, ibis::bitvector const&, std::binder1st<std::equal_to<unsigned long> >, std::binder2nd<std::less<unsigned long> >) const
	_ZNK4ibis4part7doCountImSt9binder1stISt8equal_toImEESt9binder2ndISt4lessImEEEElRK7array_tIT_ERKNS_9bitvectorET0_T1_ @ 1198
;	long ibis::part::doCount<unsigned long, std::binder1st<std::equal_to<unsigned long> >, std::binder2nd<std::greater<unsigned long> > >(array_t<unsigned long> const&, ibis::bitvector const&, std::binder1st<std::equal_to<unsigned long> >, std::binder2nd<std::greater<unsigned long> >) const
	_ZNK4ibis4part7doCountImSt9binder1stISt8equal_toImEESt9binder2ndISt7greaterImEEEElRK7array_tIT_ERKNS_9bitvectorET0_T1_ @ 1199
;	long ibis::part::doCount<unsigned long, std::binder2nd<std::less_equal<unsigned long> > >(array_t<unsigned long> const&, ibis::bitvector const&, std::binder2nd<std::less_equal<unsigned long> >) const
	_ZNK4ibis4part7doCountImSt9binder2ndISt10less_equalImEEEElRK7array_tIT_ERKNS_9bitvectorET0_ @ 1200
;	long ibis::part::doCount<unsigned long, std::binder2nd<std::greater_equal<unsigned long> > >(array_t<unsigned long> const&, ibis::bitvector const&, std::binder2nd<std::greater_equal<unsigned long> >) const
	_ZNK4ibis4part7doCountImSt9binder2ndISt13greater_equalImEEEElRK7array_tIT_ERKNS_9bitvectorET0_ @ 1201
;	long ibis::part::doCount<unsigned long, std::binder2nd<std::less<unsigned long> > >(array_t<unsigned long> const&, ibis::bitvector const&, std::binder2nd<std::less<unsigned long> >) const
	_ZNK4ibis4part7doCountImSt9binder2ndISt4lessImEEEElRK7array_tIT_ERKNS_9bitvectorET0_ @ 1202
;	long ibis::part::doCount<unsigned long, std::binder2nd<std::greater<unsigned long> > >(array_t<unsigned long> const&, ibis::bitvector const&, std::binder2nd<std::greater<unsigned long> >) const
	_ZNK4ibis4part7doCountImSt9binder2ndISt7greaterImEEEElRK7array_tIT_ERKNS_9bitvectorET0_ @ 1203
;	long ibis::part::doCount<unsigned long, std::binder2nd<std::equal_to<unsigned long> > >(array_t<unsigned long> const&, ibis::bitvector const&, std::binder2nd<std::equal_to<unsigned long> >) const
	_ZNK4ibis4part7doCountImSt9binder2ndISt8equal_toImEEEElRK7array_tIT_ERKNS_9bitvectorET0_ @ 1204
;	long ibis::part::doCount<short>(array_t<short> const&, ibis::qRange const&, ibis::bitvector const&) const
	_ZNK4ibis4part7doCountIsEElRK7array_tIT_ERKNS_6qRangeERKNS_9bitvectorE @ 1205
;	long ibis::part::doCount<short>(ibis::qRange const&) const
	_ZNK4ibis4part7doCountIsEElRKNS_6qRangeE @ 1206
;	long ibis::part::doCount<short, std::binder1st<std::less_equal<short> > >(array_t<short> const&, ibis::bitvector const&, std::binder1st<std::less_equal<short> >) const
	_ZNK4ibis4part7doCountIsSt9binder1stISt10less_equalIsEEEElRK7array_tIT_ERKNS_9bitvectorET0_ @ 1207
;	long ibis::part::doCount<short, std::binder1st<std::less_equal<short> >, std::binder2nd<std::less_equal<short> > >(array_t<short> const&, ibis::bitvector const&, std::binder1st<std::less_equal<short> >, std::binder2nd<std::less_equal<short> >) const
	_ZNK4ibis4part7doCountIsSt9binder1stISt10less_equalIsEESt9binder2ndIS4_EEElRK7array_tIT_ERKNS_9bitvectorET0_T1_ @ 1208
;	long ibis::part::doCount<short, std::binder1st<std::less_equal<short> >, std::binder2nd<std::greater_equal<short> > >(array_t<short> const&, ibis::bitvector const&, std::binder1st<std::less_equal<short> >, std::binder2nd<std::greater_equal<short> >) const
	_ZNK4ibis4part7doCountIsSt9binder1stISt10less_equalIsEESt9binder2ndISt13greater_equalIsEEEElRK7array_tIT_ERKNS_9bitvectorET0_T1_ @ 1209
;	long ibis::part::doCount<short, std::binder1st<std::less_equal<short> >, std::binder2nd<std::less<short> > >(array_t<short> const&, ibis::bitvector const&, std::binder1st<std::less_equal<short> >, std::binder2nd<std::less<short> >) const
	_ZNK4ibis4part7doCountIsSt9binder1stISt10less_equalIsEESt9binder2ndISt4lessIsEEEElRK7array_tIT_ERKNS_9bitvectorET0_T1_ @ 1210
;	long ibis::part::doCount<short, std::binder1st<std::less_equal<short> >, std::binder2nd<std::greater<short> > >(array_t<short> const&, ibis::bitvector const&, std::binder1st<std::less_equal<short> >, std::binder2nd<std::greater<short> >) const
	_ZNK4ibis4part7doCountIsSt9binder1stISt10less_equalIsEESt9binder2ndISt7greaterIsEEEElRK7array_tIT_ERKNS_9bitvectorET0_T1_ @ 1211
;	long ibis::part::doCount<short, std::binder1st<std::less_equal<short> >, std::binder2nd<std::equal_to<short> > >(array_t<short> const&, ibis::bitvector const&, std::binder1st<std::less_equal<short> >, std::binder2nd<std::equal_to<short> >) const
	_ZNK4ibis4part7doCountIsSt9binder1stISt10less_equalIsEESt9binder2ndISt8equal_toIsEEEElRK7array_tIT_ERKNS_9bitvectorET0_T1_ @ 1212
;	long ibis::part::doCount<short, std::binder1st<std::greater_equal<short> > >(array_t<short> const&, ibis::bitvector const&, std::binder1st<std::greater_equal<short> >) const
	_ZNK4ibis4part7doCountIsSt9binder1stISt13greater_equalIsEEEElRK7array_tIT_ERKNS_9bitvectorET0_ @ 1213
;	long ibis::part::doCount<short, std::binder1st<std::greater_equal<short> >, std::binder2nd<std::greater_equal<short> > >(array_t<short> const&, ibis::bitvector const&, std::binder1st<std::greater_equal<short> >, std::binder2nd<std::greater_equal<short> >) const
	_ZNK4ibis4part7doCountIsSt9binder1stISt13greater_equalIsEESt9binder2ndIS4_EEElRK7array_tIT_ERKNS_9bitvectorET0_T1_ @ 1214
;	long ibis::part::doCount<short, std::binder1st<std::greater_equal<short> >, std::binder2nd<std::less_equal<short> > >(array_t<short> const&, ibis::bitvector const&, std::binder1st<std::greater_equal<short> >, std::binder2nd<std::less_equal<short> >) const
	_ZNK4ibis4part7doCountIsSt9binder1stISt13greater_equalIsEESt9binder2ndISt10less_equalIsEEEElRK7array_tIT_ERKNS_9bitvectorET0_T1_ @ 1215
;	long ibis::part::doCount<short, std::binder1st<std::greater_equal<short> >, std::binder2nd<std::less<short> > >(array_t<short> const&, ibis::bitvector const&, std::binder1st<std::greater_equal<short> >, std::binder2nd<std::less<short> >) const
	_ZNK4ibis4part7doCountIsSt9binder1stISt13greater_equalIsEESt9binder2ndISt4lessIsEEEElRK7array_tIT_ERKNS_9bitvectorET0_T1_ @ 1216
;	long ibis::part::doCount<short, std::binder1st<std::greater_equal<short> >, std::binder2nd<std::greater<short> > >(array_t<short> const&, ibis::bitvector const&, std::binder1st<std::greater_equal<short> >, std::binder2nd<std::greater<short> >) const
	_ZNK4ibis4part7doCountIsSt9binder1stISt13greater_equalIsEESt9binder2ndISt7greaterIsEEEElRK7array_tIT_ERKNS_9bitvectorET0_T1_ @ 1217
;	long ibis::part::doCount<short, std::binder1st<std::greater_equal<short> >, std::binder2nd<std::equal_to<short> > >(array_t<short> const&, ibis::bitvector const&, std::binder1st<std::greater_equal<short> >, std::binder2nd<std::equal_to<short> >) const
	_ZNK4ibis4part7doCountIsSt9binder1stISt13greater_equalIsEESt9binder2ndISt8equal_toIsEEEElRK7array_tIT_ERKNS_9bitvectorET0_T1_ @ 1218
;	long ibis::part::doCount<short, std::binder1st<std::less<short> > >(array_t<short> const&, ibis::bitvector const&, std::binder1st<std::less<short> >) const
	_ZNK4ibis4part7doCountIsSt9binder1stISt4lessIsEEEElRK7array_tIT_ERKNS_9bitvectorET0_ @ 1219
;	long ibis::part::doCount<short, std::binder1st<std::less<short> >, std::binder2nd<std::less<short> > >(array_t<short> const&, ibis::bitvector const&, std::binder1st<std::less<short> >, std::binder2nd<std::less<short> >) const
	_ZNK4ibis4part7doCountIsSt9binder1stISt4lessIsEESt9binder2ndIS4_EEElRK7array_tIT_ERKNS_9bitvectorET0_T1_ @ 1220
;	long ibis::part::doCount<short, std::binder1st<std::less<short> >, std::binder2nd<std::less_equal<short> > >(array_t<short> const&, ibis::bitvector const&, std::binder1st<std::less<short> >, std::binder2nd<std::less_equal<short> >) const
	_ZNK4ibis4part7doCountIsSt9binder1stISt4lessIsEESt9binder2ndISt10less_equalIsEEEElRK7array_tIT_ERKNS_9bitvectorET0_T1_ @ 1221
;	long ibis::part::doCount<short, std::binder1st<std::less<short> >, std::binder2nd<std::greater_equal<short> > >(array_t<short> const&, ibis::bitvector const&, std::binder1st<std::less<short> >, std::binder2nd<std::greater_equal<short> >) const
	_ZNK4ibis4part7doCountIsSt9binder1stISt4lessIsEESt9binder2ndISt13greater_equalIsEEEElRK7array_tIT_ERKNS_9bitvectorET0_T1_ @ 1222
;	long ibis::part::doCount<short, std::binder1st<std::less<short> >, std::binder2nd<std::greater<short> > >(array_t<short> const&, ibis::bitvector const&, std::binder1st<std::less<short> >, std::binder2nd<std::greater<short> >) const
	_ZNK4ibis4part7doCountIsSt9binder1stISt4lessIsEESt9binder2ndISt7greaterIsEEEElRK7array_tIT_ERKNS_9bitvectorET0_T1_ @ 1223
;	long ibis::part::doCount<short, std::binder1st<std::less<short> >, std::binder2nd<std::equal_to<short> > >(array_t<short> const&, ibis::bitvector const&, std::binder1st<std::less<short> >, std::binder2nd<std::equal_to<short> >) const
	_ZNK4ibis4part7doCountIsSt9binder1stISt4lessIsEESt9binder2ndISt8equal_toIsEEEElRK7array_tIT_ERKNS_9bitvectorET0_T1_ @ 1224
;	long ibis::part::doCount<short, std::binder1st<std::greater<short> > >(array_t<short> const&, ibis::bitvector const&, std::binder1st<std::greater<short> >) const
	_ZNK4ibis4part7doCountIsSt9binder1stISt7greaterIsEEEElRK7array_tIT_ERKNS_9bitvectorET0_ @ 1225
;	long ibis::part::doCount<short, std::binder1st<std::greater<short> >, std::binder2nd<std::greater<short> > >(array_t<short> const&, ibis::bitvector const&, std::binder1st<std::greater<short> >, std::binder2nd<std::greater<short> >) const
	_ZNK4ibis4part7doCountIsSt9binder1stISt7greaterIsEESt9binder2ndIS4_EEElRK7array_tIT_ERKNS_9bitvectorET0_T1_ @ 1226
;	long ibis::part::doCount<short, std::binder1st<std::greater<short> >, std::binder2nd<std::less_equal<short> > >(array_t<short> const&, ibis::bitvector const&, std::binder1st<std::greater<short> >, std::binder2nd<std::less_equal<short> >) const
	_ZNK4ibis4part7doCountIsSt9binder1stISt7greaterIsEESt9binder2ndISt10less_equalIsEEEElRK7array_tIT_ERKNS_9bitvectorET0_T1_ @ 1227
;	long ibis::part::doCount<short, std::binder1st<std::greater<short> >, std::binder2nd<std::greater_equal<short> > >(array_t<short> const&, ibis::bitvector const&, std::binder1st<std::greater<short> >, std::binder2nd<std::greater_equal<short> >) const
	_ZNK4ibis4part7doCountIsSt9binder1stISt7greaterIsEESt9binder2ndISt13greater_equalIsEEEElRK7array_tIT_ERKNS_9bitvectorET0_T1_ @ 1228
;	long ibis::part::doCount<short, std::binder1st<std::greater<short> >, std::binder2nd<std::less<short> > >(array_t<short> const&, ibis::bitvector const&, std::binder1st<std::greater<short> >, std::binder2nd<std::less<short> >) const
	_ZNK4ibis4part7doCountIsSt9binder1stISt7greaterIsEESt9binder2ndISt4lessIsEEEElRK7array_tIT_ERKNS_9bitvectorET0_T1_ @ 1229
;	long ibis::part::doCount<short, std::binder1st<std::greater<short> >, std::binder2nd<std::equal_to<short> > >(array_t<short> const&, ibis::bitvector const&, std::binder1st<std::greater<short> >, std::binder2nd<std::equal_to<short> >) const
	_ZNK4ibis4part7doCountIsSt9binder1stISt7greaterIsEESt9binder2ndISt8equal_toIsEEEElRK7array_tIT_ERKNS_9bitvectorET0_T1_ @ 1230
;	long ibis::part::doCount<short, std::binder1st<std::equal_to<short> > >(array_t<short> const&, ibis::bitvector const&, std::binder1st<std::equal_to<short> >) const
	_ZNK4ibis4part7doCountIsSt9binder1stISt8equal_toIsEEEElRK7array_tIT_ERKNS_9bitvectorET0_ @ 1231
;	long ibis::part::doCount<short, std::binder1st<std::equal_to<short> >, std::binder2nd<std::equal_to<short> > >(array_t<short> const&, ibis::bitvector const&, std::binder1st<std::equal_to<short> >, std::binder2nd<std::equal_to<short> >) const
	_ZNK4ibis4part7doCountIsSt9binder1stISt8equal_toIsEESt9binder2ndIS4_EEElRK7array_tIT_ERKNS_9bitvectorET0_T1_ @ 1232
;	long ibis::part::doCount<short, std::binder1st<std::equal_to<short> >, std::binder2nd<std::less_equal<short> > >(array_t<short> const&, ibis::bitvector const&, std::binder1st<std::equal_to<short> >, std::binder2nd<std::less_equal<short> >) const
	_ZNK4ibis4part7doCountIsSt9binder1stISt8equal_toIsEESt9binder2ndISt10less_equalIsEEEElRK7array_tIT_ERKNS_9bitvectorET0_T1_ @ 1233
;	long ibis::part::doCount<short, std::binder1st<std::equal_to<short> >, std::binder2nd<std::greater_equal<short> > >(array_t<short> const&, ibis::bitvector const&, std::binder1st<std::equal_to<short> >, std::binder2nd<std::greater_equal<short> >) const
	_ZNK4ibis4part7doCountIsSt9binder1stISt8equal_toIsEESt9binder2ndISt13greater_equalIsEEEElRK7array_tIT_ERKNS_9bitvectorET0_T1_ @ 1234
;	long ibis::part::doCount<short, std::binder1st<std::equal_to<short> >, std::binder2nd<std::less<short> > >(array_t<short> const&, ibis::bitvector const&, std::binder1st<std::equal_to<short> >, std::binder2nd<std::less<short> >) const
	_ZNK4ibis4part7doCountIsSt9binder1stISt8equal_toIsEESt9binder2ndISt4lessIsEEEElRK7array_tIT_ERKNS_9bitvectorET0_T1_ @ 1235
;	long ibis::part::doCount<short, std::binder1st<std::equal_to<short> >, std::binder2nd<std::greater<short> > >(array_t<short> const&, ibis::bitvector const&, std::binder1st<std::equal_to<short> >, std::binder2nd<std::greater<short> >) const
	_ZNK4ibis4part7doCountIsSt9binder1stISt8equal_toIsEESt9binder2ndISt7greaterIsEEEElRK7array_tIT_ERKNS_9bitvectorET0_T1_ @ 1236
;	long ibis::part::doCount<short, std::binder2nd<std::less_equal<short> > >(array_t<short> const&, ibis::bitvector const&, std::binder2nd<std::less_equal<short> >) const
	_ZNK4ibis4part7doCountIsSt9binder2ndISt10less_equalIsEEEElRK7array_tIT_ERKNS_9bitvectorET0_ @ 1237
;	long ibis::part::doCount<short, std::binder2nd<std::greater_equal<short> > >(array_t<short> const&, ibis::bitvector const&, std::binder2nd<std::greater_equal<short> >) const
	_ZNK4ibis4part7doCountIsSt9binder2ndISt13greater_equalIsEEEElRK7array_tIT_ERKNS_9bitvectorET0_ @ 1238
;	long ibis::part::doCount<short, std::binder2nd<std::less<short> > >(array_t<short> const&, ibis::bitvector const&, std::binder2nd<std::less<short> >) const
	_ZNK4ibis4part7doCountIsSt9binder2ndISt4lessIsEEEElRK7array_tIT_ERKNS_9bitvectorET0_ @ 1239
;	long ibis::part::doCount<short, std::binder2nd<std::greater<short> > >(array_t<short> const&, ibis::bitvector const&, std::binder2nd<std::greater<short> >) const
	_ZNK4ibis4part7doCountIsSt9binder2ndISt7greaterIsEEEElRK7array_tIT_ERKNS_9bitvectorET0_ @ 1240
;	long ibis::part::doCount<short, std::binder2nd<std::equal_to<short> > >(array_t<short> const&, ibis::bitvector const&, std::binder2nd<std::equal_to<short> >) const
	_ZNK4ibis4part7doCountIsSt9binder2ndISt8equal_toIsEEEElRK7array_tIT_ERKNS_9bitvectorET0_ @ 1241
;	long ibis::part::doCount<unsigned short>(array_t<unsigned short> const&, ibis::qRange const&, ibis::bitvector const&) const
	_ZNK4ibis4part7doCountItEElRK7array_tIT_ERKNS_6qRangeERKNS_9bitvectorE @ 1242
;	long ibis::part::doCount<unsigned short>(ibis::qRange const&) const
	_ZNK4ibis4part7doCountItEElRKNS_6qRangeE @ 1243
;	long ibis::part::doCount<unsigned short, std::binder1st<std::less_equal<unsigned short> > >(array_t<unsigned short> const&, ibis::bitvector const&, std::binder1st<std::less_equal<unsigned short> >) const
	_ZNK4ibis4part7doCountItSt9binder1stISt10less_equalItEEEElRK7array_tIT_ERKNS_9bitvectorET0_ @ 1244
;	long ibis::part::doCount<unsigned short, std::binder1st<std::less_equal<unsigned short> >, std::binder2nd<std::less_equal<unsigned short> > >(array_t<unsigned short> const&, ibis::bitvector const&, std::binder1st<std::less_equal<unsigned short> >, std::binder2nd<std::less_equal<unsigned short> >) const
	_ZNK4ibis4part7doCountItSt9binder1stISt10less_equalItEESt9binder2ndIS4_EEElRK7array_tIT_ERKNS_9bitvectorET0_T1_ @ 1245
;	long ibis::part::doCount<unsigned short, std::binder1st<std::less_equal<unsigned short> >, std::binder2nd<std::greater_equal<unsigned short> > >(array_t<unsigned short> const&, ibis::bitvector const&, std::binder1st<std::less_equal<unsigned short> >, std::binder2nd<std::greater_equal<unsigned short> >) const
	_ZNK4ibis4part7doCountItSt9binder1stISt10less_equalItEESt9binder2ndISt13greater_equalItEEEElRK7array_tIT_ERKNS_9bitvectorET0_T1_ @ 1246
;	long ibis::part::doCount<unsigned short, std::binder1st<std::less_equal<unsigned short> >, std::binder2nd<std::less<unsigned short> > >(array_t<unsigned short> const&, ibis::bitvector const&, std::binder1st<std::less_equal<unsigned short> >, std::binder2nd<std::less<unsigned short> >) const
	_ZNK4ibis4part7doCountItSt9binder1stISt10less_equalItEESt9binder2ndISt4lessItEEEElRK7array_tIT_ERKNS_9bitvectorET0_T1_ @ 1247
;	long ibis::part::doCount<unsigned short, std::binder1st<std::less_equal<unsigned short> >, std::binder2nd<std::greater<unsigned short> > >(array_t<unsigned short> const&, ibis::bitvector const&, std::binder1st<std::less_equal<unsigned short> >, std::binder2nd<std::greater<unsigned short> >) const
	_ZNK4ibis4part7doCountItSt9binder1stISt10less_equalItEESt9binder2ndISt7greaterItEEEElRK7array_tIT_ERKNS_9bitvectorET0_T1_ @ 1248
;	long ibis::part::doCount<unsigned short, std::binder1st<std::less_equal<unsigned short> >, std::binder2nd<std::equal_to<unsigned short> > >(array_t<unsigned short> const&, ibis::bitvector const&, std::binder1st<std::less_equal<unsigned short> >, std::binder2nd<std::equal_to<unsigned short> >) const
	_ZNK4ibis4part7doCountItSt9binder1stISt10less_equalItEESt9binder2ndISt8equal_toItEEEElRK7array_tIT_ERKNS_9bitvectorET0_T1_ @ 1249
;	long ibis::part::doCount<unsigned short, std::binder1st<std::greater_equal<unsigned short> > >(array_t<unsigned short> const&, ibis::bitvector const&, std::binder1st<std::greater_equal<unsigned short> >) const
	_ZNK4ibis4part7doCountItSt9binder1stISt13greater_equalItEEEElRK7array_tIT_ERKNS_9bitvectorET0_ @ 1250
;	long ibis::part::doCount<unsigned short, std::binder1st<std::greater_equal<unsigned short> >, std::binder2nd<std::greater_equal<unsigned short> > >(array_t<unsigned short> const&, ibis::bitvector const&, std::binder1st<std::greater_equal<unsigned short> >, std::binder2nd<std::greater_equal<unsigned short> >) const
	_ZNK4ibis4part7doCountItSt9binder1stISt13greater_equalItEESt9binder2ndIS4_EEElRK7array_tIT_ERKNS_9bitvectorET0_T1_ @ 1251
;	long ibis::part::doCount<unsigned short, std::binder1st<std::greater_equal<unsigned short> >, std::binder2nd<std::less_equal<unsigned short> > >(array_t<unsigned short> const&, ibis::bitvector const&, std::binder1st<std::greater_equal<unsigned short> >, std::binder2nd<std::less_equal<unsigned short> >) const
	_ZNK4ibis4part7doCountItSt9binder1stISt13greater_equalItEESt9binder2ndISt10less_equalItEEEElRK7array_tIT_ERKNS_9bitvectorET0_T1_ @ 1252
;	long ibis::part::doCount<unsigned short, std::binder1st<std::greater_equal<unsigned short> >, std::binder2nd<std::less<unsigned short> > >(array_t<unsigned short> const&, ibis::bitvector const&, std::binder1st<std::greater_equal<unsigned short> >, std::binder2nd<std::less<unsigned short> >) const
	_ZNK4ibis4part7doCountItSt9binder1stISt13greater_equalItEESt9binder2ndISt4lessItEEEElRK7array_tIT_ERKNS_9bitvectorET0_T1_ @ 1253
;	long ibis::part::doCount<unsigned short, std::binder1st<std::greater_equal<unsigned short> >, std::binder2nd<std::greater<unsigned short> > >(array_t<unsigned short> const&, ibis::bitvector const&, std::binder1st<std::greater_equal<unsigned short> >, std::binder2nd<std::greater<unsigned short> >) const
	_ZNK4ibis4part7doCountItSt9binder1stISt13greater_equalItEESt9binder2ndISt7greaterItEEEElRK7array_tIT_ERKNS_9bitvectorET0_T1_ @ 1254
;	long ibis::part::doCount<unsigned short, std::binder1st<std::greater_equal<unsigned short> >, std::binder2nd<std::equal_to<unsigned short> > >(array_t<unsigned short> const&, ibis::bitvector const&, std::binder1st<std::greater_equal<unsigned short> >, std::binder2nd<std::equal_to<unsigned short> >) const
	_ZNK4ibis4part7doCountItSt9binder1stISt13greater_equalItEESt9binder2ndISt8equal_toItEEEElRK7array_tIT_ERKNS_9bitvectorET0_T1_ @ 1255
;	long ibis::part::doCount<unsigned short, std::binder1st<std::less<unsigned short> > >(array_t<unsigned short> const&, ibis::bitvector const&, std::binder1st<std::less<unsigned short> >) const
	_ZNK4ibis4part7doCountItSt9binder1stISt4lessItEEEElRK7array_tIT_ERKNS_9bitvectorET0_ @ 1256
;	long ibis::part::doCount<unsigned short, std::binder1st<std::less<unsigned short> >, std::binder2nd<std::less<unsigned short> > >(array_t<unsigned short> const&, ibis::bitvector const&, std::binder1st<std::less<unsigned short> >, std::binder2nd<std::less<unsigned short> >) const
	_ZNK4ibis4part7doCountItSt9binder1stISt4lessItEESt9binder2ndIS4_EEElRK7array_tIT_ERKNS_9bitvectorET0_T1_ @ 1257
;	long ibis::part::doCount<unsigned short, std::binder1st<std::less<unsigned short> >, std::binder2nd<std::less_equal<unsigned short> > >(array_t<unsigned short> const&, ibis::bitvector const&, std::binder1st<std::less<unsigned short> >, std::binder2nd<std::less_equal<unsigned short> >) const
	_ZNK4ibis4part7doCountItSt9binder1stISt4lessItEESt9binder2ndISt10less_equalItEEEElRK7array_tIT_ERKNS_9bitvectorET0_T1_ @ 1258
;	long ibis::part::doCount<unsigned short, std::binder1st<std::less<unsigned short> >, std::binder2nd<std::greater_equal<unsigned short> > >(array_t<unsigned short> const&, ibis::bitvector const&, std::binder1st<std::less<unsigned short> >, std::binder2nd<std::greater_equal<unsigned short> >) const
	_ZNK4ibis4part7doCountItSt9binder1stISt4lessItEESt9binder2ndISt13greater_equalItEEEElRK7array_tIT_ERKNS_9bitvectorET0_T1_ @ 1259
;	long ibis::part::doCount<unsigned short, std::binder1st<std::less<unsigned short> >, std::binder2nd<std::greater<unsigned short> > >(array_t<unsigned short> const&, ibis::bitvector const&, std::binder1st<std::less<unsigned short> >, std::binder2nd<std::greater<unsigned short> >) const
	_ZNK4ibis4part7doCountItSt9binder1stISt4lessItEESt9binder2ndISt7greaterItEEEElRK7array_tIT_ERKNS_9bitvectorET0_T1_ @ 1260
;	long ibis::part::doCount<unsigned short, std::binder1st<std::less<unsigned short> >, std::binder2nd<std::equal_to<unsigned short> > >(array_t<unsigned short> const&, ibis::bitvector const&, std::binder1st<std::less<unsigned short> >, std::binder2nd<std::equal_to<unsigned short> >) const
	_ZNK4ibis4part7doCountItSt9binder1stISt4lessItEESt9binder2ndISt8equal_toItEEEElRK7array_tIT_ERKNS_9bitvectorET0_T1_ @ 1261
;	long ibis::part::doCount<unsigned short, std::binder1st<std::greater<unsigned short> > >(array_t<unsigned short> const&, ibis::bitvector const&, std::binder1st<std::greater<unsigned short> >) const
	_ZNK4ibis4part7doCountItSt9binder1stISt7greaterItEEEElRK7array_tIT_ERKNS_9bitvectorET0_ @ 1262
;	long ibis::part::doCount<unsigned short, std::binder1st<std::greater<unsigned short> >, std::binder2nd<std::greater<unsigned short> > >(array_t<unsigned short> const&, ibis::bitvector const&, std::binder1st<std::greater<unsigned short> >, std::binder2nd<std::greater<unsigned short> >) const
	_ZNK4ibis4part7doCountItSt9binder1stISt7greaterItEESt9binder2ndIS4_EEElRK7array_tIT_ERKNS_9bitvectorET0_T1_ @ 1263
;	long ibis::part::doCount<unsigned short, std::binder1st<std::greater<unsigned short> >, std::binder2nd<std::less_equal<unsigned short> > >(array_t<unsigned short> const&, ibis::bitvector const&, std::binder1st<std::greater<unsigned short> >, std::binder2nd<std::less_equal<unsigned short> >) const
	_ZNK4ibis4part7doCountItSt9binder1stISt7greaterItEESt9binder2ndISt10less_equalItEEEElRK7array_tIT_ERKNS_9bitvectorET0_T1_ @ 1264
;	long ibis::part::doCount<unsigned short, std::binder1st<std::greater<unsigned short> >, std::binder2nd<std::greater_equal<unsigned short> > >(array_t<unsigned short> const&, ibis::bitvector const&, std::binder1st<std::greater<unsigned short> >, std::binder2nd<std::greater_equal<unsigned short> >) const
	_ZNK4ibis4part7doCountItSt9binder1stISt7greaterItEESt9binder2ndISt13greater_equalItEEEElRK7array_tIT_ERKNS_9bitvectorET0_T1_ @ 1265
;	long ibis::part::doCount<unsigned short, std::binder1st<std::greater<unsigned short> >, std::binder2nd<std::less<unsigned short> > >(array_t<unsigned short> const&, ibis::bitvector const&, std::binder1st<std::greater<unsigned short> >, std::binder2nd<std::less<unsigned short> >) const
	_ZNK4ibis4part7doCountItSt9binder1stISt7greaterItEESt9binder2ndISt4lessItEEEElRK7array_tIT_ERKNS_9bitvectorET0_T1_ @ 1266
;	long ibis::part::doCount<unsigned short, std::binder1st<std::greater<unsigned short> >, std::binder2nd<std::equal_to<unsigned short> > >(array_t<unsigned short> const&, ibis::bitvector const&, std::binder1st<std::greater<unsigned short> >, std::binder2nd<std::equal_to<unsigned short> >) const
	_ZNK4ibis4part7doCountItSt9binder1stISt7greaterItEESt9binder2ndISt8equal_toItEEEElRK7array_tIT_ERKNS_9bitvectorET0_T1_ @ 1267
;	long ibis::part::doCount<unsigned short, std::binder1st<std::equal_to<unsigned short> > >(array_t<unsigned short> const&, ibis::bitvector const&, std::binder1st<std::equal_to<unsigned short> >) const
	_ZNK4ibis4part7doCountItSt9binder1stISt8equal_toItEEEElRK7array_tIT_ERKNS_9bitvectorET0_ @ 1268
;	long ibis::part::doCount<unsigned short, std::binder1st<std::equal_to<unsigned short> >, std::binder2nd<std::equal_to<unsigned short> > >(array_t<unsigned short> const&, ibis::bitvector const&, std::binder1st<std::equal_to<unsigned short> >, std::binder2nd<std::equal_to<unsigned short> >) const
	_ZNK4ibis4part7doCountItSt9binder1stISt8equal_toItEESt9binder2ndIS4_EEElRK7array_tIT_ERKNS_9bitvectorET0_T1_ @ 1269
;	long ibis::part::doCount<unsigned short, std::binder1st<std::equal_to<unsigned short> >, std::binder2nd<std::less_equal<unsigned short> > >(array_t<unsigned short> const&, ibis::bitvector const&, std::binder1st<std::equal_to<unsigned short> >, std::binder2nd<std::less_equal<unsigned short> >) const
	_ZNK4ibis4part7doCountItSt9binder1stISt8equal_toItEESt9binder2ndISt10less_equalItEEEElRK7array_tIT_ERKNS_9bitvectorET0_T1_ @ 1270
;	long ibis::part::doCount<unsigned short, std::binder1st<std::equal_to<unsigned short> >, std::binder2nd<std::greater_equal<unsigned short> > >(array_t<unsigned short> const&, ibis::bitvector const&, std::binder1st<std::equal_to<unsigned short> >, std::binder2nd<std::greater_equal<unsigned short> >) const
	_ZNK4ibis4part7doCountItSt9binder1stISt8equal_toItEESt9binder2ndISt13greater_equalItEEEElRK7array_tIT_ERKNS_9bitvectorET0_T1_ @ 1271
;	long ibis::part::doCount<unsigned short, std::binder1st<std::equal_to<unsigned short> >, std::binder2nd<std::less<unsigned short> > >(array_t<unsigned short> const&, ibis::bitvector const&, std::binder1st<std::equal_to<unsigned short> >, std::binder2nd<std::less<unsigned short> >) const
	_ZNK4ibis4part7doCountItSt9binder1stISt8equal_toItEESt9binder2ndISt4lessItEEEElRK7array_tIT_ERKNS_9bitvectorET0_T1_ @ 1272
;	long ibis::part::doCount<unsigned short, std::binder1st<std::equal_to<unsigned short> >, std::binder2nd<std::greater<unsigned short> > >(array_t<unsigned short> const&, ibis::bitvector const&, std::binder1st<std::equal_to<unsigned short> >, std::binder2nd<std::greater<unsigned short> >) const
	_ZNK4ibis4part7doCountItSt9binder1stISt8equal_toItEESt9binder2ndISt7greaterItEEEElRK7array_tIT_ERKNS_9bitvectorET0_T1_ @ 1273
;	long ibis::part::doCount<unsigned short, std::binder2nd<std::less_equal<unsigned short> > >(array_t<unsigned short> const&, ibis::bitvector const&, std::binder2nd<std::less_equal<unsigned short> >) const
	_ZNK4ibis4part7doCountItSt9binder2ndISt10less_equalItEEEElRK7array_tIT_ERKNS_9bitvectorET0_ @ 1274
;	long ibis::part::doCount<unsigned short, std::binder2nd<std::greater_equal<unsigned short> > >(array_t<unsigned short> const&, ibis::bitvector const&, std::binder2nd<std::greater_equal<unsigned short> >) const
	_ZNK4ibis4part7doCountItSt9binder2ndISt13greater_equalItEEEElRK7array_tIT_ERKNS_9bitvectorET0_ @ 1275
;	long ibis::part::doCount<unsigned short, std::binder2nd<std::less<unsigned short> > >(array_t<unsigned short> const&, ibis::bitvector const&, std::binder2nd<std::less<unsigned short> >) const
	_ZNK4ibis4part7doCountItSt9binder2ndISt4lessItEEEElRK7array_tIT_ERKNS_9bitvectorET0_ @ 1276
;	long ibis::part::doCount<unsigned short, std::binder2nd<std::greater<unsigned short> > >(array_t<unsigned short> const&, ibis::bitvector const&, std::binder2nd<std::greater<unsigned short> >) const
	_ZNK4ibis4part7doCountItSt9binder2ndISt7greaterItEEEElRK7array_tIT_ERKNS_9bitvectorET0_ @ 1277
;	long ibis::part::doCount<unsigned short, std::binder2nd<std::equal_to<unsigned short> > >(array_t<unsigned short> const&, ibis::bitvector const&, std::binder2nd<std::equal_to<unsigned short> >) const
	_ZNK4ibis4part7doCountItSt9binder2ndISt8equal_toItEEEElRK7array_tIT_ERKNS_9bitvectorET0_ @ 1278
;	long ibis::part::doCount<long long>(array_t<long long> const&, ibis::qRange const&, ibis::bitvector const&) const
	_ZNK4ibis4part7doCountIxEElRK7array_tIT_ERKNS_6qRangeERKNS_9bitvectorE @ 1279
;	long ibis::part::doCount<long long>(ibis::qRange const&) const
	_ZNK4ibis4part7doCountIxEElRKNS_6qRangeE @ 1280
;	long ibis::part::doCount<long long, std::binder1st<std::less_equal<long long> > >(array_t<long long> const&, ibis::bitvector const&, std::binder1st<std::less_equal<long long> >) const
	_ZNK4ibis4part7doCountIxSt9binder1stISt10less_equalIxEEEElRK7array_tIT_ERKNS_9bitvectorET0_ @ 1281
;	long ibis::part::doCount<long long, std::binder1st<std::less_equal<long long> >, std::binder2nd<std::less_equal<long long> > >(array_t<long long> const&, ibis::bitvector const&, std::binder1st<std::less_equal<long long> >, std::binder2nd<std::less_equal<long long> >) const
	_ZNK4ibis4part7doCountIxSt9binder1stISt10less_equalIxEESt9binder2ndIS4_EEElRK7array_tIT_ERKNS_9bitvectorET0_T1_ @ 1282
;	long ibis::part::doCount<long long, std::binder1st<std::less_equal<long long> >, std::binder2nd<std::greater_equal<long long> > >(array_t<long long> const&, ibis::bitvector const&, std::binder1st<std::less_equal<long long> >, std::binder2nd<std::greater_equal<long long> >) const
	_ZNK4ibis4part7doCountIxSt9binder1stISt10less_equalIxEESt9binder2ndISt13greater_equalIxEEEElRK7array_tIT_ERKNS_9bitvectorET0_T1_ @ 1283
;	long ibis::part::doCount<long long, std::binder1st<std::less_equal<long long> >, std::binder2nd<std::less<long long> > >(array_t<long long> const&, ibis::bitvector const&, std::binder1st<std::less_equal<long long> >, std::binder2nd<std::less<long long> >) const
	_ZNK4ibis4part7doCountIxSt9binder1stISt10less_equalIxEESt9binder2ndISt4lessIxEEEElRK7array_tIT_ERKNS_9bitvectorET0_T1_ @ 1284
;	long ibis::part::doCount<long long, std::binder1st<std::less_equal<long long> >, std::binder2nd<std::greater<long long> > >(array_t<long long> const&, ibis::bitvector const&, std::binder1st<std::less_equal<long long> >, std::binder2nd<std::greater<long long> >) const
	_ZNK4ibis4part7doCountIxSt9binder1stISt10less_equalIxEESt9binder2ndISt7greaterIxEEEElRK7array_tIT_ERKNS_9bitvectorET0_T1_ @ 1285
;	long ibis::part::doCount<long long, std::binder1st<std::less_equal<long long> >, std::binder2nd<std::equal_to<long long> > >(array_t<long long> const&, ibis::bitvector const&, std::binder1st<std::less_equal<long long> >, std::binder2nd<std::equal_to<long long> >) const
	_ZNK4ibis4part7doCountIxSt9binder1stISt10less_equalIxEESt9binder2ndISt8equal_toIxEEEElRK7array_tIT_ERKNS_9bitvectorET0_T1_ @ 1286
;	long ibis::part::doCount<long long, std::binder1st<std::greater_equal<long long> > >(array_t<long long> const&, ibis::bitvector const&, std::binder1st<std::greater_equal<long long> >) const
	_ZNK4ibis4part7doCountIxSt9binder1stISt13greater_equalIxEEEElRK7array_tIT_ERKNS_9bitvectorET0_ @ 1287
;	long ibis::part::doCount<long long, std::binder1st<std::greater_equal<long long> >, std::binder2nd<std::greater_equal<long long> > >(array_t<long long> const&, ibis::bitvector const&, std::binder1st<std::greater_equal<long long> >, std::binder2nd<std::greater_equal<long long> >) const
	_ZNK4ibis4part7doCountIxSt9binder1stISt13greater_equalIxEESt9binder2ndIS4_EEElRK7array_tIT_ERKNS_9bitvectorET0_T1_ @ 1288
;	long ibis::part::doCount<long long, std::binder1st<std::greater_equal<long long> >, std::binder2nd<std::less_equal<long long> > >(array_t<long long> const&, ibis::bitvector const&, std::binder1st<std::greater_equal<long long> >, std::binder2nd<std::less_equal<long long> >) const
	_ZNK4ibis4part7doCountIxSt9binder1stISt13greater_equalIxEESt9binder2ndISt10less_equalIxEEEElRK7array_tIT_ERKNS_9bitvectorET0_T1_ @ 1289
;	long ibis::part::doCount<long long, std::binder1st<std::greater_equal<long long> >, std::binder2nd<std::less<long long> > >(array_t<long long> const&, ibis::bitvector const&, std::binder1st<std::greater_equal<long long> >, std::binder2nd<std::less<long long> >) const
	_ZNK4ibis4part7doCountIxSt9binder1stISt13greater_equalIxEESt9binder2ndISt4lessIxEEEElRK7array_tIT_ERKNS_9bitvectorET0_T1_ @ 1290
;	long ibis::part::doCount<long long, std::binder1st<std::greater_equal<long long> >, std::binder2nd<std::greater<long long> > >(array_t<long long> const&, ibis::bitvector const&, std::binder1st<std::greater_equal<long long> >, std::binder2nd<std::greater<long long> >) const
	_ZNK4ibis4part7doCountIxSt9binder1stISt13greater_equalIxEESt9binder2ndISt7greaterIxEEEElRK7array_tIT_ERKNS_9bitvectorET0_T1_ @ 1291
;	long ibis::part::doCount<long long, std::binder1st<std::greater_equal<long long> >, std::binder2nd<std::equal_to<long long> > >(array_t<long long> const&, ibis::bitvector const&, std::binder1st<std::greater_equal<long long> >, std::binder2nd<std::equal_to<long long> >) const
	_ZNK4ibis4part7doCountIxSt9binder1stISt13greater_equalIxEESt9binder2ndISt8equal_toIxEEEElRK7array_tIT_ERKNS_9bitvectorET0_T1_ @ 1292
;	long ibis::part::doCount<long long, std::binder1st<std::less<long long> > >(array_t<long long> const&, ibis::bitvector const&, std::binder1st<std::less<long long> >) const
	_ZNK4ibis4part7doCountIxSt9binder1stISt4lessIxEEEElRK7array_tIT_ERKNS_9bitvectorET0_ @ 1293
;	long ibis::part::doCount<long long, std::binder1st<std::less<long long> >, std::binder2nd<std::less<long long> > >(array_t<long long> const&, ibis::bitvector const&, std::binder1st<std::less<long long> >, std::binder2nd<std::less<long long> >) const
	_ZNK4ibis4part7doCountIxSt9binder1stISt4lessIxEESt9binder2ndIS4_EEElRK7array_tIT_ERKNS_9bitvectorET0_T1_ @ 1294
;	long ibis::part::doCount<long long, std::binder1st<std::less<long long> >, std::binder2nd<std::less_equal<long long> > >(array_t<long long> const&, ibis::bitvector const&, std::binder1st<std::less<long long> >, std::binder2nd<std::less_equal<long long> >) const
	_ZNK4ibis4part7doCountIxSt9binder1stISt4lessIxEESt9binder2ndISt10less_equalIxEEEElRK7array_tIT_ERKNS_9bitvectorET0_T1_ @ 1295
;	long ibis::part::doCount<long long, std::binder1st<std::less<long long> >, std::binder2nd<std::greater_equal<long long> > >(array_t<long long> const&, ibis::bitvector const&, std::binder1st<std::less<long long> >, std::binder2nd<std::greater_equal<long long> >) const
	_ZNK4ibis4part7doCountIxSt9binder1stISt4lessIxEESt9binder2ndISt13greater_equalIxEEEElRK7array_tIT_ERKNS_9bitvectorET0_T1_ @ 1296
;	long ibis::part::doCount<long long, std::binder1st<std::less<long long> >, std::binder2nd<std::greater<long long> > >(array_t<long long> const&, ibis::bitvector const&, std::binder1st<std::less<long long> >, std::binder2nd<std::greater<long long> >) const
	_ZNK4ibis4part7doCountIxSt9binder1stISt4lessIxEESt9binder2ndISt7greaterIxEEEElRK7array_tIT_ERKNS_9bitvectorET0_T1_ @ 1297
;	long ibis::part::doCount<long long, std::binder1st<std::less<long long> >, std::binder2nd<std::equal_to<long long> > >(array_t<long long> const&, ibis::bitvector const&, std::binder1st<std::less<long long> >, std::binder2nd<std::equal_to<long long> >) const
	_ZNK4ibis4part7doCountIxSt9binder1stISt4lessIxEESt9binder2ndISt8equal_toIxEEEElRK7array_tIT_ERKNS_9bitvectorET0_T1_ @ 1298
;	long ibis::part::doCount<long long, std::binder1st<std::greater<long long> > >(array_t<long long> const&, ibis::bitvector const&, std::binder1st<std::greater<long long> >) const
	_ZNK4ibis4part7doCountIxSt9binder1stISt7greaterIxEEEElRK7array_tIT_ERKNS_9bitvectorET0_ @ 1299
;	long ibis::part::doCount<long long, std::binder1st<std::greater<long long> >, std::binder2nd<std::greater<long long> > >(array_t<long long> const&, ibis::bitvector const&, std::binder1st<std::greater<long long> >, std::binder2nd<std::greater<long long> >) const
	_ZNK4ibis4part7doCountIxSt9binder1stISt7greaterIxEESt9binder2ndIS4_EEElRK7array_tIT_ERKNS_9bitvectorET0_T1_ @ 1300
;	long ibis::part::doCount<long long, std::binder1st<std::greater<long long> >, std::binder2nd<std::less_equal<long long> > >(array_t<long long> const&, ibis::bitvector const&, std::binder1st<std::greater<long long> >, std::binder2nd<std::less_equal<long long> >) const
	_ZNK4ibis4part7doCountIxSt9binder1stISt7greaterIxEESt9binder2ndISt10less_equalIxEEEElRK7array_tIT_ERKNS_9bitvectorET0_T1_ @ 1301
;	long ibis::part::doCount<long long, std::binder1st<std::greater<long long> >, std::binder2nd<std::greater_equal<long long> > >(array_t<long long> const&, ibis::bitvector const&, std::binder1st<std::greater<long long> >, std::binder2nd<std::greater_equal<long long> >) const
	_ZNK4ibis4part7doCountIxSt9binder1stISt7greaterIxEESt9binder2ndISt13greater_equalIxEEEElRK7array_tIT_ERKNS_9bitvectorET0_T1_ @ 1302
;	long ibis::part::doCount<long long, std::binder1st<std::greater<long long> >, std::binder2nd<std::less<long long> > >(array_t<long long> const&, ibis::bitvector const&, std::binder1st<std::greater<long long> >, std::binder2nd<std::less<long long> >) const
	_ZNK4ibis4part7doCountIxSt9binder1stISt7greaterIxEESt9binder2ndISt4lessIxEEEElRK7array_tIT_ERKNS_9bitvectorET0_T1_ @ 1303
;	long ibis::part::doCount<long long, std::binder1st<std::greater<long long> >, std::binder2nd<std::equal_to<long long> > >(array_t<long long> const&, ibis::bitvector const&, std::binder1st<std::greater<long long> >, std::binder2nd<std::equal_to<long long> >) const
	_ZNK4ibis4part7doCountIxSt9binder1stISt7greaterIxEESt9binder2ndISt8equal_toIxEEEElRK7array_tIT_ERKNS_9bitvectorET0_T1_ @ 1304
;	long ibis::part::doCount<long long, std::binder1st<std::equal_to<long long> > >(array_t<long long> const&, ibis::bitvector const&, std::binder1st<std::equal_to<long long> >) const
	_ZNK4ibis4part7doCountIxSt9binder1stISt8equal_toIxEEEElRK7array_tIT_ERKNS_9bitvectorET0_ @ 1305
;	long ibis::part::doCount<long long, std::binder1st<std::equal_to<long long> >, std::binder2nd<std::equal_to<long long> > >(array_t<long long> const&, ibis::bitvector const&, std::binder1st<std::equal_to<long long> >, std::binder2nd<std::equal_to<long long> >) const
	_ZNK4ibis4part7doCountIxSt9binder1stISt8equal_toIxEESt9binder2ndIS4_EEElRK7array_tIT_ERKNS_9bitvectorET0_T1_ @ 1306
;	long ibis::part::doCount<long long, std::binder1st<std::equal_to<long long> >, std::binder2nd<std::less_equal<long long> > >(array_t<long long> const&, ibis::bitvector const&, std::binder1st<std::equal_to<long long> >, std::binder2nd<std::less_equal<long long> >) const
	_ZNK4ibis4part7doCountIxSt9binder1stISt8equal_toIxEESt9binder2ndISt10less_equalIxEEEElRK7array_tIT_ERKNS_9bitvectorET0_T1_ @ 1307
;	long ibis::part::doCount<long long, std::binder1st<std::equal_to<long long> >, std::binder2nd<std::greater_equal<long long> > >(array_t<long long> const&, ibis::bitvector const&, std::binder1st<std::equal_to<long long> >, std::binder2nd<std::greater_equal<long long> >) const
	_ZNK4ibis4part7doCountIxSt9binder1stISt8equal_toIxEESt9binder2ndISt13greater_equalIxEEEElRK7array_tIT_ERKNS_9bitvectorET0_T1_ @ 1308
;	long ibis::part::doCount<long long, std::binder1st<std::equal_to<long long> >, std::binder2nd<std::less<long long> > >(array_t<long long> const&, ibis::bitvector const&, std::binder1st<std::equal_to<long long> >, std::binder2nd<std::less<long long> >) const
	_ZNK4ibis4part7doCountIxSt9binder1stISt8equal_toIxEESt9binder2ndISt4lessIxEEEElRK7array_tIT_ERKNS_9bitvectorET0_T1_ @ 1309
;	long ibis::part::doCount<long long, std::binder1st<std::equal_to<long long> >, std::binder2nd<std::greater<long long> > >(array_t<long long> const&, ibis::bitvector const&, std::binder1st<std::equal_to<long long> >, std::binder2nd<std::greater<long long> >) const
	_ZNK4ibis4part7doCountIxSt9binder1stISt8equal_toIxEESt9binder2ndISt7greaterIxEEEElRK7array_tIT_ERKNS_9bitvectorET0_T1_ @ 1310
;	long ibis::part::doCount<long long, std::binder2nd<std::less_equal<long long> > >(array_t<long long> const&, ibis::bitvector const&, std::binder2nd<std::less_equal<long long> >) const
	_ZNK4ibis4part7doCountIxSt9binder2ndISt10less_equalIxEEEElRK7array_tIT_ERKNS_9bitvectorET0_ @ 1311
;	long ibis::part::doCount<long long, std::binder2nd<std::greater_equal<long long> > >(array_t<long long> const&, ibis::bitvector const&, std::binder2nd<std::greater_equal<long long> >) const
	_ZNK4ibis4part7doCountIxSt9binder2ndISt13greater_equalIxEEEElRK7array_tIT_ERKNS_9bitvectorET0_ @ 1312
;	long ibis::part::doCount<long long, std::binder2nd<std::less<long long> > >(array_t<long long> const&, ibis::bitvector const&, std::binder2nd<std::less<long long> >) const
	_ZNK4ibis4part7doCountIxSt9binder2ndISt4lessIxEEEElRK7array_tIT_ERKNS_9bitvectorET0_ @ 1313
;	long ibis::part::doCount<long long, std::binder2nd<std::greater<long long> > >(array_t<long long> const&, ibis::bitvector const&, std::binder2nd<std::greater<long long> >) const
	_ZNK4ibis4part7doCountIxSt9binder2ndISt7greaterIxEEEElRK7array_tIT_ERKNS_9bitvectorET0_ @ 1314
;	long ibis::part::doCount<long long, std::binder2nd<std::equal_to<long long> > >(array_t<long long> const&, ibis::bitvector const&, std::binder2nd<std::equal_to<long long> >) const
	_ZNK4ibis4part7doCountIxSt9binder2ndISt8equal_toIxEEEElRK7array_tIT_ERKNS_9bitvectorET0_ @ 1315
;	long ibis::part::doCount<unsigned long long>(array_t<unsigned long long> const&, ibis::qRange const&, ibis::bitvector const&) const
	_ZNK4ibis4part7doCountIyEElRK7array_tIT_ERKNS_6qRangeERKNS_9bitvectorE @ 1316
;	long ibis::part::doCount<unsigned long long>(ibis::qRange const&) const
	_ZNK4ibis4part7doCountIyEElRKNS_6qRangeE @ 1317
;	long ibis::part::doCount<unsigned long long, std::binder1st<std::less_equal<unsigned long long> > >(array_t<unsigned long long> const&, ibis::bitvector const&, std::binder1st<std::less_equal<unsigned long long> >) const
	_ZNK4ibis4part7doCountIySt9binder1stISt10less_equalIyEEEElRK7array_tIT_ERKNS_9bitvectorET0_ @ 1318
;	long ibis::part::doCount<unsigned long long, std::binder1st<std::less_equal<unsigned long long> >, std::binder2nd<std::less_equal<unsigned long long> > >(array_t<unsigned long long> const&, ibis::bitvector const&, std::binder1st<std::less_equal<unsigned long long> >, std::binder2nd<std::less_equal<unsigned long long> >) const
	_ZNK4ibis4part7doCountIySt9binder1stISt10less_equalIyEESt9binder2ndIS4_EEElRK7array_tIT_ERKNS_9bitvectorET0_T1_ @ 1319
;	long ibis::part::doCount<unsigned long long, std::binder1st<std::less_equal<unsigned long long> >, std::binder2nd<std::greater_equal<unsigned long long> > >(array_t<unsigned long long> const&, ibis::bitvector const&, std::binder1st<std::less_equal<unsigned long long> >, std::binder2nd<std::greater_equal<unsigned long long> >) const
	_ZNK4ibis4part7doCountIySt9binder1stISt10less_equalIyEESt9binder2ndISt13greater_equalIyEEEElRK7array_tIT_ERKNS_9bitvectorET0_T1_ @ 1320
;	long ibis::part::doCount<unsigned long long, std::binder1st<std::less_equal<unsigned long long> >, std::binder2nd<std::less<unsigned long long> > >(array_t<unsigned long long> const&, ibis::bitvector const&, std::binder1st<std::less_equal<unsigned long long> >, std::binder2nd<std::less<unsigned long long> >) const
	_ZNK4ibis4part7doCountIySt9binder1stISt10less_equalIyEESt9binder2ndISt4lessIyEEEElRK7array_tIT_ERKNS_9bitvectorET0_T1_ @ 1321
;	long ibis::part::doCount<unsigned long long, std::binder1st<std::less_equal<unsigned long long> >, std::binder2nd<std::greater<unsigned long long> > >(array_t<unsigned long long> const&, ibis::bitvector const&, std::binder1st<std::less_equal<unsigned long long> >, std::binder2nd<std::greater<unsigned long long> >) const
	_ZNK4ibis4part7doCountIySt9binder1stISt10less_equalIyEESt9binder2ndISt7greaterIyEEEElRK7array_tIT_ERKNS_9bitvectorET0_T1_ @ 1322
;	long ibis::part::doCount<unsigned long long, std::binder1st<std::less_equal<unsigned long long> >, std::binder2nd<std::equal_to<unsigned long long> > >(array_t<unsigned long long> const&, ibis::bitvector const&, std::binder1st<std::less_equal<unsigned long long> >, std::binder2nd<std::equal_to<unsigned long long> >) const
	_ZNK4ibis4part7doCountIySt9binder1stISt10less_equalIyEESt9binder2ndISt8equal_toIyEEEElRK7array_tIT_ERKNS_9bitvectorET0_T1_ @ 1323
;	long ibis::part::doCount<unsigned long long, std::binder1st<std::greater_equal<unsigned long long> > >(array_t<unsigned long long> const&, ibis::bitvector const&, std::binder1st<std::greater_equal<unsigned long long> >) const
	_ZNK4ibis4part7doCountIySt9binder1stISt13greater_equalIyEEEElRK7array_tIT_ERKNS_9bitvectorET0_ @ 1324
;	long ibis::part::doCount<unsigned long long, std::binder1st<std::greater_equal<unsigned long long> >, std::binder2nd<std::greater_equal<unsigned long long> > >(array_t<unsigned long long> const&, ibis::bitvector const&, std::binder1st<std::greater_equal<unsigned long long> >, std::binder2nd<std::greater_equal<unsigned long long> >) const
	_ZNK4ibis4part7doCountIySt9binder1stISt13greater_equalIyEESt9binder2ndIS4_EEElRK7array_tIT_ERKNS_9bitvectorET0_T1_ @ 1325
;	long ibis::part::doCount<unsigned long long, std::binder1st<std::greater_equal<unsigned long long> >, std::binder2nd<std::less_equal<unsigned long long> > >(array_t<unsigned long long> const&, ibis::bitvector const&, std::binder1st<std::greater_equal<unsigned long long> >, std::binder2nd<std::less_equal<unsigned long long> >) const
	_ZNK4ibis4part7doCountIySt9binder1stISt13greater_equalIyEESt9binder2ndISt10less_equalIyEEEElRK7array_tIT_ERKNS_9bitvectorET0_T1_ @ 1326
;	long ibis::part::doCount<unsigned long long, std::binder1st<std::greater_equal<unsigned long long> >, std::binder2nd<std::less<unsigned long long> > >(array_t<unsigned long long> const&, ibis::bitvector const&, std::binder1st<std::greater_equal<unsigned long long> >, std::binder2nd<std::less<unsigned long long> >) const
	_ZNK4ibis4part7doCountIySt9binder1stISt13greater_equalIyEESt9binder2ndISt4lessIyEEEElRK7array_tIT_ERKNS_9bitvectorET0_T1_ @ 1327
;	long ibis::part::doCount<unsigned long long, std::binder1st<std::greater_equal<unsigned long long> >, std::binder2nd<std::greater<unsigned long long> > >(array_t<unsigned long long> const&, ibis::bitvector const&, std::binder1st<std::greater_equal<unsigned long long> >, std::binder2nd<std::greater<unsigned long long> >) const
	_ZNK4ibis4part7doCountIySt9binder1stISt13greater_equalIyEESt9binder2ndISt7greaterIyEEEElRK7array_tIT_ERKNS_9bitvectorET0_T1_ @ 1328
;	long ibis::part::doCount<unsigned long long, std::binder1st<std::greater_equal<unsigned long long> >, std::binder2nd<std::equal_to<unsigned long long> > >(array_t<unsigned long long> const&, ibis::bitvector const&, std::binder1st<std::greater_equal<unsigned long long> >, std::binder2nd<std::equal_to<unsigned long long> >) const
	_ZNK4ibis4part7doCountIySt9binder1stISt13greater_equalIyEESt9binder2ndISt8equal_toIyEEEElRK7array_tIT_ERKNS_9bitvectorET0_T1_ @ 1329
;	long ibis::part::doCount<unsigned long long, std::binder1st<std::less<unsigned long long> > >(array_t<unsigned long long> const&, ibis::bitvector const&, std::binder1st<std::less<unsigned long long> >) const
	_ZNK4ibis4part7doCountIySt9binder1stISt4lessIyEEEElRK7array_tIT_ERKNS_9bitvectorET0_ @ 1330
;	long ibis::part::doCount<unsigned long long, std::binder1st<std::less<unsigned long long> >, std::binder2nd<std::less<unsigned long long> > >(array_t<unsigned long long> const&, ibis::bitvector const&, std::binder1st<std::less<unsigned long long> >, std::binder2nd<std::less<unsigned long long> >) const
	_ZNK4ibis4part7doCountIySt9binder1stISt4lessIyEESt9binder2ndIS4_EEElRK7array_tIT_ERKNS_9bitvectorET0_T1_ @ 1331
;	long ibis::part::doCount<unsigned long long, std::binder1st<std::less<unsigned long long> >, std::binder2nd<std::less_equal<unsigned long long> > >(array_t<unsigned long long> const&, ibis::bitvector const&, std::binder1st<std::less<unsigned long long> >, std::binder2nd<std::less_equal<unsigned long long> >) const
	_ZNK4ibis4part7doCountIySt9binder1stISt4lessIyEESt9binder2ndISt10less_equalIyEEEElRK7array_tIT_ERKNS_9bitvectorET0_T1_ @ 1332
;	long ibis::part::doCount<unsigned long long, std::binder1st<std::less<unsigned long long> >, std::binder2nd<std::greater_equal<unsigned long long> > >(array_t<unsigned long long> const&, ibis::bitvector const&, std::binder1st<std::less<unsigned long long> >, std::binder2nd<std::greater_equal<unsigned long long> >) const
	_ZNK4ibis4part7doCountIySt9binder1stISt4lessIyEESt9binder2ndISt13greater_equalIyEEEElRK7array_tIT_ERKNS_9bitvectorET0_T1_ @ 1333
;	long ibis::part::doCount<unsigned long long, std::binder1st<std::less<unsigned long long> >, std::binder2nd<std::greater<unsigned long long> > >(array_t<unsigned long long> const&, ibis::bitvector const&, std::binder1st<std::less<unsigned long long> >, std::binder2nd<std::greater<unsigned long long> >) const
	_ZNK4ibis4part7doCountIySt9binder1stISt4lessIyEESt9binder2ndISt7greaterIyEEEElRK7array_tIT_ERKNS_9bitvectorET0_T1_ @ 1334
;	long ibis::part::doCount<unsigned long long, std::binder1st<std::less<unsigned long long> >, std::binder2nd<std::equal_to<unsigned long long> > >(array_t<unsigned long long> const&, ibis::bitvector const&, std::binder1st<std::less<unsigned long long> >, std::binder2nd<std::equal_to<unsigned long long> >) const
	_ZNK4ibis4part7doCountIySt9binder1stISt4lessIyEESt9binder2ndISt8equal_toIyEEEElRK7array_tIT_ERKNS_9bitvectorET0_T1_ @ 1335
;	long ibis::part::doCount<unsigned long long, std::binder1st<std::greater<unsigned long long> > >(array_t<unsigned long long> const&, ibis::bitvector const&, std::binder1st<std::greater<unsigned long long> >) const
	_ZNK4ibis4part7doCountIySt9binder1stISt7greaterIyEEEElRK7array_tIT_ERKNS_9bitvectorET0_ @ 1336
;	long ibis::part::doCount<unsigned long long, std::binder1st<std::greater<unsigned long long> >, std::binder2nd<std::greater<unsigned long long> > >(array_t<unsigned long long> const&, ibis::bitvector const&, std::binder1st<std::greater<unsigned long long> >, std::binder2nd<std::greater<unsigned long long> >) const
	_ZNK4ibis4part7doCountIySt9binder1stISt7greaterIyEESt9binder2ndIS4_EEElRK7array_tIT_ERKNS_9bitvectorET0_T1_ @ 1337
;	long ibis::part::doCount<unsigned long long, std::binder1st<std::greater<unsigned long long> >, std::binder2nd<std::less_equal<unsigned long long> > >(array_t<unsigned long long> const&, ibis::bitvector const&, std::binder1st<std::greater<unsigned long long> >, std::binder2nd<std::less_equal<unsigned long long> >) const
	_ZNK4ibis4part7doCountIySt9binder1stISt7greaterIyEESt9binder2ndISt10less_equalIyEEEElRK7array_tIT_ERKNS_9bitvectorET0_T1_ @ 1338
;	long ibis::part::doCount<unsigned long long, std::binder1st<std::greater<unsigned long long> >, std::binder2nd<std::greater_equal<unsigned long long> > >(array_t<unsigned long long> const&, ibis::bitvector const&, std::binder1st<std::greater<unsigned long long> >, std::binder2nd<std::greater_equal<unsigned long long> >) const
	_ZNK4ibis4part7doCountIySt9binder1stISt7greaterIyEESt9binder2ndISt13greater_equalIyEEEElRK7array_tIT_ERKNS_9bitvectorET0_T1_ @ 1339
;	long ibis::part::doCount<unsigned long long, std::binder1st<std::greater<unsigned long long> >, std::binder2nd<std::less<unsigned long long> > >(array_t<unsigned long long> const&, ibis::bitvector const&, std::binder1st<std::greater<unsigned long long> >, std::binder2nd<std::less<unsigned long long> >) const
	_ZNK4ibis4part7doCountIySt9binder1stISt7greaterIyEESt9binder2ndISt4lessIyEEEElRK7array_tIT_ERKNS_9bitvectorET0_T1_ @ 1340
;	long ibis::part::doCount<unsigned long long, std::binder1st<std::greater<unsigned long long> >, std::binder2nd<std::equal_to<unsigned long long> > >(array_t<unsigned long long> const&, ibis::bitvector const&, std::binder1st<std::greater<unsigned long long> >, std::binder2nd<std::equal_to<unsigned long long> >) const
	_ZNK4ibis4part7doCountIySt9binder1stISt7greaterIyEESt9binder2ndISt8equal_toIyEEEElRK7array_tIT_ERKNS_9bitvectorET0_T1_ @ 1341
;	long ibis::part::doCount<unsigned long long, std::binder1st<std::equal_to<unsigned long long> > >(array_t<unsigned long long> const&, ibis::bitvector const&, std::binder1st<std::equal_to<unsigned long long> >) const
	_ZNK4ibis4part7doCountIySt9binder1stISt8equal_toIyEEEElRK7array_tIT_ERKNS_9bitvectorET0_ @ 1342
;	long ibis::part::doCount<unsigned long long, std::binder1st<std::equal_to<unsigned long long> >, std::binder2nd<std::equal_to<unsigned long long> > >(array_t<unsigned long long> const&, ibis::bitvector const&, std::binder1st<std::equal_to<unsigned long long> >, std::binder2nd<std::equal_to<unsigned long long> >) const
	_ZNK4ibis4part7doCountIySt9binder1stISt8equal_toIyEESt9binder2ndIS4_EEElRK7array_tIT_ERKNS_9bitvectorET0_T1_ @ 1343
;	long ibis::part::doCount<unsigned long long, std::binder1st<std::equal_to<unsigned long long> >, std::binder2nd<std::less_equal<unsigned long long> > >(array_t<unsigned long long> const&, ibis::bitvector const&, std::binder1st<std::equal_to<unsigned long long> >, std::binder2nd<std::less_equal<unsigned long long> >) const
	_ZNK4ibis4part7doCountIySt9binder1stISt8equal_toIyEESt9binder2ndISt10less_equalIyEEEElRK7array_tIT_ERKNS_9bitvectorET0_T1_ @ 1344
;	long ibis::part::doCount<unsigned long long, std::binder1st<std::equal_to<unsigned long long> >, std::binder2nd<std::greater_equal<unsigned long long> > >(array_t<unsigned long long> const&, ibis::bitvector const&, std::binder1st<std::equal_to<unsigned long long> >, std::binder2nd<std::greater_equal<unsigned long long> >) const
	_ZNK4ibis4part7doCountIySt9binder1stISt8equal_toIyEESt9binder2ndISt13greater_equalIyEEEElRK7array_tIT_ERKNS_9bitvectorET0_T1_ @ 1345
;	long ibis::part::doCount<unsigned long long, std::binder1st<std::equal_to<unsigned long long> >, std::binder2nd<std::less<unsigned long long> > >(array_t<unsigned long long> const&, ibis::bitvector const&, std::binder1st<std::equal_to<unsigned long long> >, std::binder2nd<std::less<unsigned long long> >) const
	_ZNK4ibis4part7doCountIySt9binder1stISt8equal_toIyEESt9binder2ndISt4lessIyEEEElRK7array_tIT_ERKNS_9bitvectorET0_T1_ @ 1346
;	long ibis::part::doCount<unsigned long long, std::binder1st<std::equal_to<unsigned long long> >, std::binder2nd<std::greater<unsigned long long> > >(array_t<unsigned long long> const&, ibis::bitvector const&, std::binder1st<std::equal_to<unsigned long long> >, std::binder2nd<std::greater<unsigned long long> >) const
	_ZNK4ibis4part7doCountIySt9binder1stISt8equal_toIyEESt9binder2ndISt7greaterIyEEEElRK7array_tIT_ERKNS_9bitvectorET0_T1_ @ 1347
;	long ibis::part::doCount<unsigned long long, std::binder2nd<std::less_equal<unsigned long long> > >(array_t<unsigned long long> const&, ibis::bitvector const&, std::binder2nd<std::less_equal<unsigned long long> >) const
	_ZNK4ibis4part7doCountIySt9binder2ndISt10less_equalIyEEEElRK7array_tIT_ERKNS_9bitvectorET0_ @ 1348
;	long ibis::part::doCount<unsigned long long, std::binder2nd<std::greater_equal<unsigned long long> > >(array_t<unsigned long long> const&, ibis::bitvector const&, std::binder2nd<std::greater_equal<unsigned long long> >) const
	_ZNK4ibis4part7doCountIySt9binder2ndISt13greater_equalIyEEEElRK7array_tIT_ERKNS_9bitvectorET0_ @ 1349
;	long ibis::part::doCount<unsigned long long, std::binder2nd<std::less<unsigned long long> > >(array_t<unsigned long long> const&, ibis::bitvector const&, std::binder2nd<std::less<unsigned long long> >) const
	_ZNK4ibis4part7doCountIySt9binder2ndISt4lessIyEEEElRK7array_tIT_ERKNS_9bitvectorET0_ @ 1350
;	long ibis::part::doCount<unsigned long long, std::binder2nd<std::greater<unsigned long long> > >(array_t<unsigned long long> const&, ibis::bitvector const&, std::binder2nd<std::greater<unsigned long long> >) const
	_ZNK4ibis4part7doCountIySt9binder2ndISt7greaterIyEEEElRK7array_tIT_ERKNS_9bitvectorET0_ @ 1351
;	long ibis::part::doCount<unsigned long long, std::binder2nd<std::equal_to<unsigned long long> > >(array_t<unsigned long long> const&, ibis::bitvector const&, std::binder2nd<std::equal_to<unsigned long long> >) const
	_ZNK4ibis4part7doCountIySt9binder2ndISt8equal_toIyEEEElRK7array_tIT_ERKNS_9bitvectorET0_ @ 1352
;	ibis::part::getRIDs(ibis::bitvector const&) const
	_ZNK4ibis4part7getRIDsERKNS_9bitvectorE @ 1353
;	ibis::part::compJoin(ibis::rangeJoin const&, ibis::bitvector64 const&, ibis::bitvector64&) const
	_ZNK4ibis4part8compJoinERKNS_9rangeJoinERKNS_11bitvector64ERS4_ @ 1354
;	ibis::part::equiJoin(ibis::rangeJoin const&, ibis::bitvector64 const&, ibis::bitvector64&) const
	_ZNK4ibis4part8equiJoinERKNS_9rangeJoinERKNS_11bitvector64ERS4_ @ 1355
;	ibis::part::fillRIDs(char const*) const
	_ZNK4ibis4part8fillRIDsEPKc @ 1356
;	ibis::part::freeRIDs() const
	_ZNK4ibis4part8freeRIDsEv @ 1357
;	ibis::part::getState() const
	_ZNK4ibis4part8getStateEv @ 1358
;	ibis::part::logError(char const*, char const*, ...) const
	_ZNK4ibis4part8logErrorEPKcS2_z @ 1359
;	ibis::part::loopJoin(ibis::rangeJoin const&, ibis::bitvector const&) const
	_ZNK4ibis4part8loopJoinERKNS_9rangeJoinERKNS_9bitvectorE @ 1360
;	ibis::part::loopJoin(ibis::rangeJoin const&, ibis::bitvector const&, ibis::bitvector64&) const
	_ZNK4ibis4part8loopJoinERKNS_9rangeJoinERKNS_9bitvectorERNS_11bitvector64E @ 1361
;	ibis::part::loopJoin(std::vector<ibis::rangeJoin const*, std::allocator<ibis::rangeJoin const*> > const&, ibis::bitvector const&) const
	_ZNK4ibis4part8loopJoinERKSt6vectorIPKNS_9rangeJoinESaIS4_EERKNS_9bitvectorE @ 1362
;	ibis::part::loopJoin(std::vector<ibis::rangeJoin const*, std::allocator<ibis::rangeJoin const*> > const&, ibis::bitvector const&, ibis::bitvector64&) const
	_ZNK4ibis4part8loopJoinERKSt6vectorIPKNS_9rangeJoinESaIS4_EERKNS_9bitvectorERNS_11bitvector64E @ 1363
;	ibis::part::matchAny(ibis::qAnyAny const&, ibis::bitvector const&, ibis::bitvector&) const
	_ZNK4ibis4part8matchAnyERKNS_7qAnyAnyERKNS_9bitvectorERS4_ @ 1364
;	ibis::part::matchAny(ibis::qAnyAny const&, ibis::bitvector&) const
	_ZNK4ibis4part8matchAnyERKNS_7qAnyAnyERNS_9bitvectorE @ 1365
;	ibis::part::metaTags() const
	_ZNK4ibis4part8metaTagsEv @ 1366
;	ibis::part::readRIDs() const
	_ZNK4ibis4part8readRIDsEv @ 1367
;	ibis::part::selfTest(int, char const*) const
	_ZNK4ibis4part8selfTestEiPKc @ 1368
;	ibis::part::sortRIDs() const
	_ZNK4ibis4part8sortRIDsEv @ 1369
;	ibis::part::writeTDC(unsigned long, std::map<char const*, ibis::column*, ibis::lessi, std::allocator<std::pair<char const* const, ibis::column*> > > const&, char const*) const
	_ZNK4ibis4part8writeTDCEmRKSt3mapIPKcPNS_6columnENS_5lessiESaISt4pairIKS3_S5_EEES3_ @ 1370
;	ibis::part::countHits(ibis::qRange const&) const
	_ZNK4ibis4part9countHitsERKNS_6qRangeE @ 1371
;	ibis::part::doCompare(array_t<double> const&, ibis::bitvector const&, ibis::bitvector&, ibis::qRange const&) const
	_ZNK4ibis4part9doCompareERK7array_tIdERKNS_9bitvectorERS5_RKNS_6qRangeE @ 1372
;	ibis::part::doCompare(array_t<float> const&, ibis::bitvector const&, ibis::bitvector&, ibis::qRange const&) const
	_ZNK4ibis4part9doCompareERK7array_tIfERKNS_9bitvectorERS5_RKNS_6qRangeE @ 1373
;	ibis::part::doCompare(array_t<long> const&, ibis::bitvector const&, ibis::bitvector&, ibis::qRange const&) const
	_ZNK4ibis4part9doCompareERK7array_tIlERKNS_9bitvectorERS5_RKNS_6qRangeE @ 1374
;	ibis::part::doCompare(array_t<unsigned long> const&, ibis::bitvector const&, ibis::bitvector&, ibis::qRange const&) const
	_ZNK4ibis4part9doCompareERK7array_tImERKNS_9bitvectorERS5_RKNS_6qRangeE @ 1375
;	void ibis::part::doCompare<char>(char const*, ibis::bitvector const&, ibis::bitvector&, ibis::qRange const&) const
	_ZNK4ibis4part9doCompareIcEEvPKcRKNS_9bitvectorERS4_RKNS_6qRangeE @ 1376
;	void ibis::part::doCompare<char>(array_t<char> const&, ibis::bitvector const&, ibis::bitvector&, ibis::qRange const&) const
	_ZNK4ibis4part9doCompareIcEEvRK7array_tIT_ERKNS_9bitvectorERS7_RKNS_6qRangeE @ 1377
;	long ibis::part::doCompare<char, std::binder1st<std::less_equal<char> > >(array_t<char> const&, std::binder1st<std::less_equal<char> >, ibis::bitvector const&, ibis::bitvector&) const
	_ZNK4ibis4part9doCompareIcSt9binder1stISt10less_equalIcEEEElRK7array_tIT_ET0_RKNS_9bitvectorERSC_ @ 1378
;	long ibis::part::doCompare<char, std::binder1st<std::less_equal<char> >, std::binder2nd<std::less_equal<char> > >(array_t<char> const&, std::binder1st<std::less_equal<char> >, std::binder2nd<std::less_equal<char> >, ibis::bitvector const&, ibis::bitvector&) const
	_ZNK4ibis4part9doCompareIcSt9binder1stISt10less_equalIcEESt9binder2ndIS4_EEElRK7array_tIT_ET0_T1_RKNS_9bitvectorERSF_ @ 1379
;	long ibis::part::doCompare<char, std::binder1st<std::less_equal<char> >, std::binder2nd<std::greater_equal<char> > >(array_t<char> const&, std::binder1st<std::less_equal<char> >, std::binder2nd<std::greater_equal<char> >, ibis::bitvector const&, ibis::bitvector&) const
	_ZNK4ibis4part9doCompareIcSt9binder1stISt10less_equalIcEESt9binder2ndISt13greater_equalIcEEEElRK7array_tIT_ET0_T1_RKNS_9bitvectorERSH_ @ 1380
;	long ibis::part::doCompare<char, std::binder1st<std::less_equal<char> >, std::binder2nd<std::less<char> > >(array_t<char> const&, std::binder1st<std::less_equal<char> >, std::binder2nd<std::less<char> >, ibis::bitvector const&, ibis::bitvector&) const
	_ZNK4ibis4part9doCompareIcSt9binder1stISt10less_equalIcEESt9binder2ndISt4lessIcEEEElRK7array_tIT_ET0_T1_RKNS_9bitvectorERSH_ @ 1381
;	long ibis::part::doCompare<char, std::binder1st<std::less_equal<char> >, std::binder2nd<std::greater<char> > >(array_t<char> const&, std::binder1st<std::less_equal<char> >, std::binder2nd<std::greater<char> >, ibis::bitvector const&, ibis::bitvector&) const
	_ZNK4ibis4part9doCompareIcSt9binder1stISt10less_equalIcEESt9binder2ndISt7greaterIcEEEElRK7array_tIT_ET0_T1_RKNS_9bitvectorERSH_ @ 1382
;	long ibis::part::doCompare<char, std::binder1st<std::less_equal<char> >, std::binder2nd<std::equal_to<char> > >(array_t<char> const&, std::binder1st<std::less_equal<char> >, std::binder2nd<std::equal_to<char> >, ibis::bitvector const&, ibis::bitvector&) const
	_ZNK4ibis4part9doCompareIcSt9binder1stISt10less_equalIcEESt9binder2ndISt8equal_toIcEEEElRK7array_tIT_ET0_T1_RKNS_9bitvectorERSH_ @ 1383
;	long ibis::part::doCompare<char, std::binder1st<std::greater_equal<char> > >(array_t<char> const&, std::binder1st<std::greater_equal<char> >, ibis::bitvector const&, ibis::bitvector&) const
	_ZNK4ibis4part9doCompareIcSt9binder1stISt13greater_equalIcEEEElRK7array_tIT_ET0_RKNS_9bitvectorERSC_ @ 1384
;	long ibis::part::doCompare<char, std::binder1st<std::greater_equal<char> >, std::binder2nd<std::greater_equal<char> > >(array_t<char> const&, std::binder1st<std::greater_equal<char> >, std::binder2nd<std::greater_equal<char> >, ibis::bitvector const&, ibis::bitvector&) const
	_ZNK4ibis4part9doCompareIcSt9binder1stISt13greater_equalIcEESt9binder2ndIS4_EEElRK7array_tIT_ET0_T1_RKNS_9bitvectorERSF_ @ 1385
;	long ibis::part::doCompare<char, std::binder1st<std::greater_equal<char> >, std::binder2nd<std::less_equal<char> > >(array_t<char> const&, std::binder1st<std::greater_equal<char> >, std::binder2nd<std::less_equal<char> >, ibis::bitvector const&, ibis::bitvector&) const
	_ZNK4ibis4part9doCompareIcSt9binder1stISt13greater_equalIcEESt9binder2ndISt10less_equalIcEEEElRK7array_tIT_ET0_T1_RKNS_9bitvectorERSH_ @ 1386
;	long ibis::part::doCompare<char, std::binder1st<std::greater_equal<char> >, std::binder2nd<std::less<char> > >(array_t<char> const&, std::binder1st<std::greater_equal<char> >, std::binder2nd<std::less<char> >, ibis::bitvector const&, ibis::bitvector&) const
	_ZNK4ibis4part9doCompareIcSt9binder1stISt13greater_equalIcEESt9binder2ndISt4lessIcEEEElRK7array_tIT_ET0_T1_RKNS_9bitvectorERSH_ @ 1387
;	long ibis::part::doCompare<char, std::binder1st<std::greater_equal<char> >, std::binder2nd<std::greater<char> > >(array_t<char> const&, std::binder1st<std::greater_equal<char> >, std::binder2nd<std::greater<char> >, ibis::bitvector const&, ibis::bitvector&) const
	_ZNK4ibis4part9doCompareIcSt9binder1stISt13greater_equalIcEESt9binder2ndISt7greaterIcEEEElRK7array_tIT_ET0_T1_RKNS_9bitvectorERSH_ @ 1388
;	long ibis::part::doCompare<char, std::binder1st<std::greater_equal<char> >, std::binder2nd<std::equal_to<char> > >(array_t<char> const&, std::binder1st<std::greater_equal<char> >, std::binder2nd<std::equal_to<char> >, ibis::bitvector const&, ibis::bitvector&) const
	_ZNK4ibis4part9doCompareIcSt9binder1stISt13greater_equalIcEESt9binder2ndISt8equal_toIcEEEElRK7array_tIT_ET0_T1_RKNS_9bitvectorERSH_ @ 1389
;	long ibis::part::doCompare<char, std::binder1st<std::less<char> > >(array_t<char> const&, std::binder1st<std::less<char> >, ibis::bitvector const&, ibis::bitvector&) const
	_ZNK4ibis4part9doCompareIcSt9binder1stISt4lessIcEEEElRK7array_tIT_ET0_RKNS_9bitvectorERSC_ @ 1390
;	long ibis::part::doCompare<char, std::binder1st<std::less<char> >, std::binder2nd<std::less<char> > >(array_t<char> const&, std::binder1st<std::less<char> >, std::binder2nd<std::less<char> >, ibis::bitvector const&, ibis::bitvector&) const
	_ZNK4ibis4part9doCompareIcSt9binder1stISt4lessIcEESt9binder2ndIS4_EEElRK7array_tIT_ET0_T1_RKNS_9bitvectorERSF_ @ 1391
;	long ibis::part::doCompare<char, std::binder1st<std::less<char> >, std::binder2nd<std::less_equal<char> > >(array_t<char> const&, std::binder1st<std::less<char> >, std::binder2nd<std::less_equal<char> >, ibis::bitvector const&, ibis::bitvector&) const
	_ZNK4ibis4part9doCompareIcSt9binder1stISt4lessIcEESt9binder2ndISt10less_equalIcEEEElRK7array_tIT_ET0_T1_RKNS_9bitvectorERSH_ @ 1392
;	long ibis::part::doCompare<char, std::binder1st<std::less<char> >, std::binder2nd<std::greater_equal<char> > >(array_t<char> const&, std::binder1st<std::less<char> >, std::binder2nd<std::greater_equal<char> >, ibis::bitvector const&, ibis::bitvector&) const
	_ZNK4ibis4part9doCompareIcSt9binder1stISt4lessIcEESt9binder2ndISt13greater_equalIcEEEElRK7array_tIT_ET0_T1_RKNS_9bitvectorERSH_ @ 1393
;	long ibis::part::doCompare<char, std::binder1st<std::less<char> >, std::binder2nd<std::greater<char> > >(array_t<char> const&, std::binder1st<std::less<char> >, std::binder2nd<std::greater<char> >, ibis::bitvector const&, ibis::bitvector&) const
	_ZNK4ibis4part9doCompareIcSt9binder1stISt4lessIcEESt9binder2ndISt7greaterIcEEEElRK7array_tIT_ET0_T1_RKNS_9bitvectorERSH_ @ 1394
;	long ibis::part::doCompare<char, std::binder1st<std::less<char> >, std::binder2nd<std::equal_to<char> > >(array_t<char> const&, std::binder1st<std::less<char> >, std::binder2nd<std::equal_to<char> >, ibis::bitvector const&, ibis::bitvector&) const
	_ZNK4ibis4part9doCompareIcSt9binder1stISt4lessIcEESt9binder2ndISt8equal_toIcEEEElRK7array_tIT_ET0_T1_RKNS_9bitvectorERSH_ @ 1395
;	long ibis::part::doCompare<char, std::binder1st<std::greater<char> > >(array_t<char> const&, std::binder1st<std::greater<char> >, ibis::bitvector const&, ibis::bitvector&) const
	_ZNK4ibis4part9doCompareIcSt9binder1stISt7greaterIcEEEElRK7array_tIT_ET0_RKNS_9bitvectorERSC_ @ 1396
;	long ibis::part::doCompare<char, std::binder1st<std::greater<char> >, std::binder2nd<std::greater<char> > >(array_t<char> const&, std::binder1st<std::greater<char> >, std::binder2nd<std::greater<char> >, ibis::bitvector const&, ibis::bitvector&) const
	_ZNK4ibis4part9doCompareIcSt9binder1stISt7greaterIcEESt9binder2ndIS4_EEElRK7array_tIT_ET0_T1_RKNS_9bitvectorERSF_ @ 1397
;	long ibis::part::doCompare<char, std::binder1st<std::greater<char> >, std::binder2nd<std::less_equal<char> > >(array_t<char> const&, std::binder1st<std::greater<char> >, std::binder2nd<std::less_equal<char> >, ibis::bitvector const&, ibis::bitvector&) const
	_ZNK4ibis4part9doCompareIcSt9binder1stISt7greaterIcEESt9binder2ndISt10less_equalIcEEEElRK7array_tIT_ET0_T1_RKNS_9bitvectorERSH_ @ 1398
;	long ibis::part::doCompare<char, std::binder1st<std::greater<char> >, std::binder2nd<std::greater_equal<char> > >(array_t<char> const&, std::binder1st<std::greater<char> >, std::binder2nd<std::greater_equal<char> >, ibis::bitvector const&, ibis::bitvector&) const
	_ZNK4ibis4part9doCompareIcSt9binder1stISt7greaterIcEESt9binder2ndISt13greater_equalIcEEEElRK7array_tIT_ET0_T1_RKNS_9bitvectorERSH_ @ 1399
;	long ibis::part::doCompare<char, std::binder1st<std::greater<char> >, std::binder2nd<std::less<char> > >(array_t<char> const&, std::binder1st<std::greater<char> >, std::binder2nd<std::less<char> >, ibis::bitvector const&, ibis::bitvector&) const
	_ZNK4ibis4part9doCompareIcSt9binder1stISt7greaterIcEESt9binder2ndISt4lessIcEEEElRK7array_tIT_ET0_T1_RKNS_9bitvectorERSH_ @ 1400
;	long ibis::part::doCompare<char, std::binder1st<std::greater<char> >, std::binder2nd<std::equal_to<char> > >(array_t<char> const&, std::binder1st<std::greater<char> >, std::binder2nd<std::equal_to<char> >, ibis::bitvector const&, ibis::bitvector&) const
	_ZNK4ibis4part9doCompareIcSt9binder1stISt7greaterIcEESt9binder2ndISt8equal_toIcEEEElRK7array_tIT_ET0_T1_RKNS_9bitvectorERSH_ @ 1401
;	long ibis::part::doCompare<char, std::binder1st<std::equal_to<char> > >(array_t<char> const&, std::binder1st<std::equal_to<char> >, ibis::bitvector const&, ibis::bitvector&) const
	_ZNK4ibis4part9doCompareIcSt9binder1stISt8equal_toIcEEEElRK7array_tIT_ET0_RKNS_9bitvectorERSC_ @ 1402
;	long ibis::part::doCompare<char, std::binder1st<std::equal_to<char> >, std::binder2nd<std::equal_to<char> > >(array_t<char> const&, std::binder1st<std::equal_to<char> >, std::binder2nd<std::equal_to<char> >, ibis::bitvector const&, ibis::bitvector&) const
	_ZNK4ibis4part9doCompareIcSt9binder1stISt8equal_toIcEESt9binder2ndIS4_EEElRK7array_tIT_ET0_T1_RKNS_9bitvectorERSF_ @ 1403
;	long ibis::part::doCompare<char, std::binder1st<std::equal_to<char> >, std::binder2nd<std::less_equal<char> > >(array_t<char> const&, std::binder1st<std::equal_to<char> >, std::binder2nd<std::less_equal<char> >, ibis::bitvector const&, ibis::bitvector&) const
	_ZNK4ibis4part9doCompareIcSt9binder1stISt8equal_toIcEESt9binder2ndISt10less_equalIcEEEElRK7array_tIT_ET0_T1_RKNS_9bitvectorERSH_ @ 1404
;	long ibis::part::doCompare<char, std::binder1st<std::equal_to<char> >, std::binder2nd<std::greater_equal<char> > >(array_t<char> const&, std::binder1st<std::equal_to<char> >, std::binder2nd<std::greater_equal<char> >, ibis::bitvector const&, ibis::bitvector&) const
	_ZNK4ibis4part9doCompareIcSt9binder1stISt8equal_toIcEESt9binder2ndISt13greater_equalIcEEEElRK7array_tIT_ET0_T1_RKNS_9bitvectorERSH_ @ 1405
;	long ibis::part::doCompare<char, std::binder1st<std::equal_to<char> >, std::binder2nd<std::less<char> > >(array_t<char> const&, std::binder1st<std::equal_to<char> >, std::binder2nd<std::less<char> >, ibis::bitvector const&, ibis::bitvector&) const
	_ZNK4ibis4part9doCompareIcSt9binder1stISt8equal_toIcEESt9binder2ndISt4lessIcEEEElRK7array_tIT_ET0_T1_RKNS_9bitvectorERSH_ @ 1406
;	long ibis::part::doCompare<char, std::binder1st<std::equal_to<char> >, std::binder2nd<std::greater<char> > >(array_t<char> const&, std::binder1st<std::equal_to<char> >, std::binder2nd<std::greater<char> >, ibis::bitvector const&, ibis::bitvector&) const
	_ZNK4ibis4part9doCompareIcSt9binder1stISt8equal_toIcEESt9binder2ndISt7greaterIcEEEElRK7array_tIT_ET0_T1_RKNS_9bitvectorERSH_ @ 1407
;	long ibis::part::doCompare<char, std::binder2nd<std::less_equal<char> > >(array_t<char> const&, std::binder2nd<std::less_equal<char> >, ibis::bitvector const&, ibis::bitvector&) const
	_ZNK4ibis4part9doCompareIcSt9binder2ndISt10less_equalIcEEEElRK7array_tIT_ET0_RKNS_9bitvectorERSC_ @ 1408
;	long ibis::part::doCompare<char, std::binder2nd<std::greater_equal<char> > >(array_t<char> const&, std::binder2nd<std::greater_equal<char> >, ibis::bitvector const&, ibis::bitvector&) const
	_ZNK4ibis4part9doCompareIcSt9binder2ndISt13greater_equalIcEEEElRK7array_tIT_ET0_RKNS_9bitvectorERSC_ @ 1409
;	long ibis::part::doCompare<char, std::binder2nd<std::less<char> > >(array_t<char> const&, std::binder2nd<std::less<char> >, ibis::bitvector const&, ibis::bitvector&) const
	_ZNK4ibis4part9doCompareIcSt9binder2ndISt4lessIcEEEElRK7array_tIT_ET0_RKNS_9bitvectorERSC_ @ 1410
;	long ibis::part::doCompare<char, std::binder2nd<std::greater<char> > >(array_t<char> const&, std::binder2nd<std::greater<char> >, ibis::bitvector const&, ibis::bitvector&) const
	_ZNK4ibis4part9doCompareIcSt9binder2ndISt7greaterIcEEEElRK7array_tIT_ET0_RKNS_9bitvectorERSC_ @ 1411
;	long ibis::part::doCompare<char, std::binder2nd<std::equal_to<char> > >(array_t<char> const&, std::binder2nd<std::equal_to<char> >, ibis::bitvector const&, ibis::bitvector&) const
	_ZNK4ibis4part9doCompareIcSt9binder2ndISt8equal_toIcEEEElRK7array_tIT_ET0_RKNS_9bitvectorERSC_ @ 1412
;	long ibis::part::doCompare<double, std::binder1st<std::less_equal<double> > >(array_t<double> const&, std::binder1st<std::less_equal<double> >, ibis::bitvector const&, ibis::bitvector&) const
	_ZNK4ibis4part9doCompareIdSt9binder1stISt10less_equalIdEEEElRK7array_tIT_ET0_RKNS_9bitvectorERSC_ @ 1413
;	long ibis::part::doCompare<double, std::binder1st<std::less_equal<double> >, std::binder2nd<std::less_equal<double> > >(array_t<double> const&, std::binder1st<std::less_equal<double> >, std::binder2nd<std::less_equal<double> >, ibis::bitvector const&, ibis::bitvector&) const
	_ZNK4ibis4part9doCompareIdSt9binder1stISt10less_equalIdEESt9binder2ndIS4_EEElRK7array_tIT_ET0_T1_RKNS_9bitvectorERSF_ @ 1414
;	long ibis::part::doCompare<double, std::binder1st<std::less_equal<double> >, std::binder2nd<std::greater_equal<double> > >(array_t<double> const&, std::binder1st<std::less_equal<double> >, std::binder2nd<std::greater_equal<double> >, ibis::bitvector const&, ibis::bitvector&) const
	_ZNK4ibis4part9doCompareIdSt9binder1stISt10less_equalIdEESt9binder2ndISt13greater_equalIdEEEElRK7array_tIT_ET0_T1_RKNS_9bitvectorERSH_ @ 1415
;	long ibis::part::doCompare<double, std::binder1st<std::less_equal<double> >, std::binder2nd<std::less<double> > >(array_t<double> const&, std::binder1st<std::less_equal<double> >, std::binder2nd<std::less<double> >, ibis::bitvector const&, ibis::bitvector&) const
	_ZNK4ibis4part9doCompareIdSt9binder1stISt10less_equalIdEESt9binder2ndISt4lessIdEEEElRK7array_tIT_ET0_T1_RKNS_9bitvectorERSH_ @ 1416
;	long ibis::part::doCompare<double, std::binder1st<std::less_equal<double> >, std::binder2nd<std::greater<double> > >(array_t<double> const&, std::binder1st<std::less_equal<double> >, std::binder2nd<std::greater<double> >, ibis::bitvector const&, ibis::bitvector&) const
	_ZNK4ibis4part9doCompareIdSt9binder1stISt10less_equalIdEESt9binder2ndISt7greaterIdEEEElRK7array_tIT_ET0_T1_RKNS_9bitvectorERSH_ @ 1417
;	long ibis::part::doCompare<double, std::binder1st<std::less_equal<double> >, std::binder2nd<std::equal_to<double> > >(array_t<double> const&, std::binder1st<std::less_equal<double> >, std::binder2nd<std::equal_to<double> >, ibis::bitvector const&, ibis::bitvector&) const
	_ZNK4ibis4part9doCompareIdSt9binder1stISt10less_equalIdEESt9binder2ndISt8equal_toIdEEEElRK7array_tIT_ET0_T1_RKNS_9bitvectorERSH_ @ 1418
;	long ibis::part::doCompare<double, std::binder1st<std::greater_equal<double> > >(array_t<double> const&, std::binder1st<std::greater_equal<double> >, ibis::bitvector const&, ibis::bitvector&) const
	_ZNK4ibis4part9doCompareIdSt9binder1stISt13greater_equalIdEEEElRK7array_tIT_ET0_RKNS_9bitvectorERSC_ @ 1419
;	long ibis::part::doCompare<double, std::binder1st<std::greater_equal<double> >, std::binder2nd<std::greater_equal<double> > >(array_t<double> const&, std::binder1st<std::greater_equal<double> >, std::binder2nd<std::greater_equal<double> >, ibis::bitvector const&, ibis::bitvector&) const
	_ZNK4ibis4part9doCompareIdSt9binder1stISt13greater_equalIdEESt9binder2ndIS4_EEElRK7array_tIT_ET0_T1_RKNS_9bitvectorERSF_ @ 1420
;	long ibis::part::doCompare<double, std::binder1st<std::greater_equal<double> >, std::binder2nd<std::less_equal<double> > >(array_t<double> const&, std::binder1st<std::greater_equal<double> >, std::binder2nd<std::less_equal<double> >, ibis::bitvector const&, ibis::bitvector&) const
	_ZNK4ibis4part9doCompareIdSt9binder1stISt13greater_equalIdEESt9binder2ndISt10less_equalIdEEEElRK7array_tIT_ET0_T1_RKNS_9bitvectorERSH_ @ 1421
;	long ibis::part::doCompare<double, std::binder1st<std::greater_equal<double> >, std::binder2nd<std::less<double> > >(array_t<double> const&, std::binder1st<std::greater_equal<double> >, std::binder2nd<std::less<double> >, ibis::bitvector const&, ibis::bitvector&) const
	_ZNK4ibis4part9doCompareIdSt9binder1stISt13greater_equalIdEESt9binder2ndISt4lessIdEEEElRK7array_tIT_ET0_T1_RKNS_9bitvectorERSH_ @ 1422
;	long ibis::part::doCompare<double, std::binder1st<std::greater_equal<double> >, std::binder2nd<std::greater<double> > >(array_t<double> const&, std::binder1st<std::greater_equal<double> >, std::binder2nd<std::greater<double> >, ibis::bitvector const&, ibis::bitvector&) const
	_ZNK4ibis4part9doCompareIdSt9binder1stISt13greater_equalIdEESt9binder2ndISt7greaterIdEEEElRK7array_tIT_ET0_T1_RKNS_9bitvectorERSH_ @ 1423
;	long ibis::part::doCompare<double, std::binder1st<std::greater_equal<double> >, std::binder2nd<std::equal_to<double> > >(array_t<double> const&, std::binder1st<std::greater_equal<double> >, std::binder2nd<std::equal_to<double> >, ibis::bitvector const&, ibis::bitvector&) const
	_ZNK4ibis4part9doCompareIdSt9binder1stISt13greater_equalIdEESt9binder2ndISt8equal_toIdEEEElRK7array_tIT_ET0_T1_RKNS_9bitvectorERSH_ @ 1424
;	long ibis::part::doCompare<double, std::binder1st<std::less<double> > >(array_t<double> const&, std::binder1st<std::less<double> >, ibis::bitvector const&, ibis::bitvector&) const
	_ZNK4ibis4part9doCompareIdSt9binder1stISt4lessIdEEEElRK7array_tIT_ET0_RKNS_9bitvectorERSC_ @ 1425
;	long ibis::part::doCompare<double, std::binder1st<std::less<double> >, std::binder2nd<std::less<double> > >(array_t<double> const&, std::binder1st<std::less<double> >, std::binder2nd<std::less<double> >, ibis::bitvector const&, ibis::bitvector&) const
	_ZNK4ibis4part9doCompareIdSt9binder1stISt4lessIdEESt9binder2ndIS4_EEElRK7array_tIT_ET0_T1_RKNS_9bitvectorERSF_ @ 1426
;	long ibis::part::doCompare<double, std::binder1st<std::less<double> >, std::binder2nd<std::less_equal<double> > >(array_t<double> const&, std::binder1st<std::less<double> >, std::binder2nd<std::less_equal<double> >, ibis::bitvector const&, ibis::bitvector&) const
	_ZNK4ibis4part9doCompareIdSt9binder1stISt4lessIdEESt9binder2ndISt10less_equalIdEEEElRK7array_tIT_ET0_T1_RKNS_9bitvectorERSH_ @ 1427
;	long ibis::part::doCompare<double, std::binder1st<std::less<double> >, std::binder2nd<std::greater_equal<double> > >(array_t<double> const&, std::binder1st<std::less<double> >, std::binder2nd<std::greater_equal<double> >, ibis::bitvector const&, ibis::bitvector&) const
	_ZNK4ibis4part9doCompareIdSt9binder1stISt4lessIdEESt9binder2ndISt13greater_equalIdEEEElRK7array_tIT_ET0_T1_RKNS_9bitvectorERSH_ @ 1428
;	long ibis::part::doCompare<double, std::binder1st<std::less<double> >, std::binder2nd<std::greater<double> > >(array_t<double> const&, std::binder1st<std::less<double> >, std::binder2nd<std::greater<double> >, ibis::bitvector const&, ibis::bitvector&) const
	_ZNK4ibis4part9doCompareIdSt9binder1stISt4lessIdEESt9binder2ndISt7greaterIdEEEElRK7array_tIT_ET0_T1_RKNS_9bitvectorERSH_ @ 1429
;	long ibis::part::doCompare<double, std::binder1st<std::less<double> >, std::binder2nd<std::equal_to<double> > >(array_t<double> const&, std::binder1st<std::less<double> >, std::binder2nd<std::equal_to<double> >, ibis::bitvector const&, ibis::bitvector&) const
	_ZNK4ibis4part9doCompareIdSt9binder1stISt4lessIdEESt9binder2ndISt8equal_toIdEEEElRK7array_tIT_ET0_T1_RKNS_9bitvectorERSH_ @ 1430
;	long ibis::part::doCompare<double, std::binder1st<std::greater<double> > >(array_t<double> const&, std::binder1st<std::greater<double> >, ibis::bitvector const&, ibis::bitvector&) const
	_ZNK4ibis4part9doCompareIdSt9binder1stISt7greaterIdEEEElRK7array_tIT_ET0_RKNS_9bitvectorERSC_ @ 1431
;	long ibis::part::doCompare<double, std::binder1st<std::greater<double> >, std::binder2nd<std::greater<double> > >(array_t<double> const&, std::binder1st<std::greater<double> >, std::binder2nd<std::greater<double> >, ibis::bitvector const&, ibis::bitvector&) const
	_ZNK4ibis4part9doCompareIdSt9binder1stISt7greaterIdEESt9binder2ndIS4_EEElRK7array_tIT_ET0_T1_RKNS_9bitvectorERSF_ @ 1432
;	long ibis::part::doCompare<double, std::binder1st<std::greater<double> >, std::binder2nd<std::less_equal<double> > >(array_t<double> const&, std::binder1st<std::greater<double> >, std::binder2nd<std::less_equal<double> >, ibis::bitvector const&, ibis::bitvector&) const
	_ZNK4ibis4part9doCompareIdSt9binder1stISt7greaterIdEESt9binder2ndISt10less_equalIdEEEElRK7array_tIT_ET0_T1_RKNS_9bitvectorERSH_ @ 1433
;	long ibis::part::doCompare<double, std::binder1st<std::greater<double> >, std::binder2nd<std::greater_equal<double> > >(array_t<double> const&, std::binder1st<std::greater<double> >, std::binder2nd<std::greater_equal<double> >, ibis::bitvector const&, ibis::bitvector&) const
	_ZNK4ibis4part9doCompareIdSt9binder1stISt7greaterIdEESt9binder2ndISt13greater_equalIdEEEElRK7array_tIT_ET0_T1_RKNS_9bitvectorERSH_ @ 1434
;	long ibis::part::doCompare<double, std::binder1st<std::greater<double> >, std::binder2nd<std::less<double> > >(array_t<double> const&, std::binder1st<std::greater<double> >, std::binder2nd<std::less<double> >, ibis::bitvector const&, ibis::bitvector&) const
	_ZNK4ibis4part9doCompareIdSt9binder1stISt7greaterIdEESt9binder2ndISt4lessIdEEEElRK7array_tIT_ET0_T1_RKNS_9bitvectorERSH_ @ 1435
;	long ibis::part::doCompare<double, std::binder1st<std::greater<double> >, std::binder2nd<std::equal_to<double> > >(array_t<double> const&, std::binder1st<std::greater<double> >, std::binder2nd<std::equal_to<double> >, ibis::bitvector const&, ibis::bitvector&) const
	_ZNK4ibis4part9doCompareIdSt9binder1stISt7greaterIdEESt9binder2ndISt8equal_toIdEEEElRK7array_tIT_ET0_T1_RKNS_9bitvectorERSH_ @ 1436
;	long ibis::part::doCompare<double, std::binder1st<std::equal_to<double> > >(array_t<double> const&, std::binder1st<std::equal_to<double> >, ibis::bitvector const&, ibis::bitvector&) const
	_ZNK4ibis4part9doCompareIdSt9binder1stISt8equal_toIdEEEElRK7array_tIT_ET0_RKNS_9bitvectorERSC_ @ 1437
;	long ibis::part::doCompare<double, std::binder1st<std::equal_to<double> >, std::binder2nd<std::equal_to<double> > >(array_t<double> const&, std::binder1st<std::equal_to<double> >, std::binder2nd<std::equal_to<double> >, ibis::bitvector const&, ibis::bitvector&) const
	_ZNK4ibis4part9doCompareIdSt9binder1stISt8equal_toIdEESt9binder2ndIS4_EEElRK7array_tIT_ET0_T1_RKNS_9bitvectorERSF_ @ 1438
;	long ibis::part::doCompare<double, std::binder1st<std::equal_to<double> >, std::binder2nd<std::less_equal<double> > >(array_t<double> const&, std::binder1st<std::equal_to<double> >, std::binder2nd<std::less_equal<double> >, ibis::bitvector const&, ibis::bitvector&) const
	_ZNK4ibis4part9doCompareIdSt9binder1stISt8equal_toIdEESt9binder2ndISt10less_equalIdEEEElRK7array_tIT_ET0_T1_RKNS_9bitvectorERSH_ @ 1439
;	long ibis::part::doCompare<double, std::binder1st<std::equal_to<double> >, std::binder2nd<std::greater_equal<double> > >(array_t<double> const&, std::binder1st<std::equal_to<double> >, std::binder2nd<std::greater_equal<double> >, ibis::bitvector const&, ibis::bitvector&) const
	_ZNK4ibis4part9doCompareIdSt9binder1stISt8equal_toIdEESt9binder2ndISt13greater_equalIdEEEElRK7array_tIT_ET0_T1_RKNS_9bitvectorERSH_ @ 1440
;	long ibis::part::doCompare<double, std::binder1st<std::equal_to<double> >, std::binder2nd<std::less<double> > >(array_t<double> const&, std::binder1st<std::equal_to<double> >, std::binder2nd<std::less<double> >, ibis::bitvector const&, ibis::bitvector&) const
	_ZNK4ibis4part9doCompareIdSt9binder1stISt8equal_toIdEESt9binder2ndISt4lessIdEEEElRK7array_tIT_ET0_T1_RKNS_9bitvectorERSH_ @ 1441
;	long ibis::part::doCompare<double, std::binder1st<std::equal_to<double> >, std::binder2nd<std::greater<double> > >(array_t<double> const&, std::binder1st<std::equal_to<double> >, std::binder2nd<std::greater<double> >, ibis::bitvector const&, ibis::bitvector&) const
	_ZNK4ibis4part9doCompareIdSt9binder1stISt8equal_toIdEESt9binder2ndISt7greaterIdEEEElRK7array_tIT_ET0_T1_RKNS_9bitvectorERSH_ @ 1442
;	long ibis::part::doCompare<double, std::binder2nd<std::less_equal<double> > >(array_t<double> const&, std::binder2nd<std::less_equal<double> >, ibis::bitvector const&, ibis::bitvector&) const
	_ZNK4ibis4part9doCompareIdSt9binder2ndISt10less_equalIdEEEElRK7array_tIT_ET0_RKNS_9bitvectorERSC_ @ 1443
;	long ibis::part::doCompare<double, std::binder2nd<std::greater_equal<double> > >(array_t<double> const&, std::binder2nd<std::greater_equal<double> >, ibis::bitvector const&, ibis::bitvector&) const
	_ZNK4ibis4part9doCompareIdSt9binder2ndISt13greater_equalIdEEEElRK7array_tIT_ET0_RKNS_9bitvectorERSC_ @ 1444
;	long ibis::part::doCompare<double, std::binder2nd<std::less<double> > >(array_t<double> const&, std::binder2nd<std::less<double> >, ibis::bitvector const&, ibis::bitvector&) const
	_ZNK4ibis4part9doCompareIdSt9binder2ndISt4lessIdEEEElRK7array_tIT_ET0_RKNS_9bitvectorERSC_ @ 1445
;	long ibis::part::doCompare<double, std::binder2nd<std::greater<double> > >(array_t<double> const&, std::binder2nd<std::greater<double> >, ibis::bitvector const&, ibis::bitvector&) const
	_ZNK4ibis4part9doCompareIdSt9binder2ndISt7greaterIdEEEElRK7array_tIT_ET0_RKNS_9bitvectorERSC_ @ 1446
;	long ibis::part::doCompare<double, std::binder2nd<std::equal_to<double> > >(array_t<double> const&, std::binder2nd<std::equal_to<double> >, ibis::bitvector const&, ibis::bitvector&) const
	_ZNK4ibis4part9doCompareIdSt9binder2ndISt8equal_toIdEEEElRK7array_tIT_ET0_RKNS_9bitvectorERSC_ @ 1447
;	long ibis::part::doCompare<float, std::binder1st<std::less_equal<float> > >(array_t<float> const&, std::binder1st<std::less_equal<float> >, ibis::bitvector const&, ibis::bitvector&) const
	_ZNK4ibis4part9doCompareIfSt9binder1stISt10less_equalIfEEEElRK7array_tIT_ET0_RKNS_9bitvectorERSC_ @ 1448
;	long ibis::part::doCompare<float, std::binder1st<std::less_equal<float> >, std::binder2nd<std::less_equal<float> > >(array_t<float> const&, std::binder1st<std::less_equal<float> >, std::binder2nd<std::less_equal<float> >, ibis::bitvector const&, ibis::bitvector&) const
	_ZNK4ibis4part9doCompareIfSt9binder1stISt10less_equalIfEESt9binder2ndIS4_EEElRK7array_tIT_ET0_T1_RKNS_9bitvectorERSF_ @ 1449
;	long ibis::part::doCompare<float, std::binder1st<std::less_equal<float> >, std::binder2nd<std::greater_equal<float> > >(array_t<float> const&, std::binder1st<std::less_equal<float> >, std::binder2nd<std::greater_equal<float> >, ibis::bitvector const&, ibis::bitvector&) const
	_ZNK4ibis4part9doCompareIfSt9binder1stISt10less_equalIfEESt9binder2ndISt13greater_equalIfEEEElRK7array_tIT_ET0_T1_RKNS_9bitvectorERSH_ @ 1450
;	long ibis::part::doCompare<float, std::binder1st<std::less_equal<float> >, std::binder2nd<std::less<float> > >(array_t<float> const&, std::binder1st<std::less_equal<float> >, std::binder2nd<std::less<float> >, ibis::bitvector const&, ibis::bitvector&) const
	_ZNK4ibis4part9doCompareIfSt9binder1stISt10less_equalIfEESt9binder2ndISt4lessIfEEEElRK7array_tIT_ET0_T1_RKNS_9bitvectorERSH_ @ 1451
;	long ibis::part::doCompare<float, std::binder1st<std::less_equal<float> >, std::binder2nd<std::greater<float> > >(array_t<float> const&, std::binder1st<std::less_equal<float> >, std::binder2nd<std::greater<float> >, ibis::bitvector const&, ibis::bitvector&) const
	_ZNK4ibis4part9doCompareIfSt9binder1stISt10less_equalIfEESt9binder2ndISt7greaterIfEEEElRK7array_tIT_ET0_T1_RKNS_9bitvectorERSH_ @ 1452
;	long ibis::part::doCompare<float, std::binder1st<std::less_equal<float> >, std::binder2nd<std::equal_to<float> > >(array_t<float> const&, std::binder1st<std::less_equal<float> >, std::binder2nd<std::equal_to<float> >, ibis::bitvector const&, ibis::bitvector&) const
	_ZNK4ibis4part9doCompareIfSt9binder1stISt10less_equalIfEESt9binder2ndISt8equal_toIfEEEElRK7array_tIT_ET0_T1_RKNS_9bitvectorERSH_ @ 1453
;	long ibis::part::doCompare<float, std::binder1st<std::greater_equal<float> > >(array_t<float> const&, std::binder1st<std::greater_equal<float> >, ibis::bitvector const&, ibis::bitvector&) const
	_ZNK4ibis4part9doCompareIfSt9binder1stISt13greater_equalIfEEEElRK7array_tIT_ET0_RKNS_9bitvectorERSC_ @ 1454
;	long ibis::part::doCompare<float, std::binder1st<std::greater_equal<float> >, std::binder2nd<std::greater_equal<float> > >(array_t<float> const&, std::binder1st<std::greater_equal<float> >, std::binder2nd<std::greater_equal<float> >, ibis::bitvector const&, ibis::bitvector&) const
	_ZNK4ibis4part9doCompareIfSt9binder1stISt13greater_equalIfEESt9binder2ndIS4_EEElRK7array_tIT_ET0_T1_RKNS_9bitvectorERSF_ @ 1455
;	long ibis::part::doCompare<float, std::binder1st<std::greater_equal<float> >, std::binder2nd<std::less_equal<float> > >(array_t<float> const&, std::binder1st<std::greater_equal<float> >, std::binder2nd<std::less_equal<float> >, ibis::bitvector const&, ibis::bitvector&) const
	_ZNK4ibis4part9doCompareIfSt9binder1stISt13greater_equalIfEESt9binder2ndISt10less_equalIfEEEElRK7array_tIT_ET0_T1_RKNS_9bitvectorERSH_ @ 1456
;	long ibis::part::doCompare<float, std::binder1st<std::greater_equal<float> >, std::binder2nd<std::less<float> > >(array_t<float> const&, std::binder1st<std::greater_equal<float> >, std::binder2nd<std::less<float> >, ibis::bitvector const&, ibis::bitvector&) const
	_ZNK4ibis4part9doCompareIfSt9binder1stISt13greater_equalIfEESt9binder2ndISt4lessIfEEEElRK7array_tIT_ET0_T1_RKNS_9bitvectorERSH_ @ 1457
;	long ibis::part::doCompare<float, std::binder1st<std::greater_equal<float> >, std::binder2nd<std::greater<float> > >(array_t<float> const&, std::binder1st<std::greater_equal<float> >, std::binder2nd<std::greater<float> >, ibis::bitvector const&, ibis::bitvector&) const
	_ZNK4ibis4part9doCompareIfSt9binder1stISt13greater_equalIfEESt9binder2ndISt7greaterIfEEEElRK7array_tIT_ET0_T1_RKNS_9bitvectorERSH_ @ 1458
;	long ibis::part::doCompare<float, std::binder1st<std::greater_equal<float> >, std::binder2nd<std::equal_to<float> > >(array_t<float> const&, std::binder1st<std::greater_equal<float> >, std::binder2nd<std::equal_to<float> >, ibis::bitvector const&, ibis::bitvector&) const
	_ZNK4ibis4part9doCompareIfSt9binder1stISt13greater_equalIfEESt9binder2ndISt8equal_toIfEEEElRK7array_tIT_ET0_T1_RKNS_9bitvectorERSH_ @ 1459
;	long ibis::part::doCompare<float, std::binder1st<std::less<float> > >(array_t<float> const&, std::binder1st<std::less<float> >, ibis::bitvector const&, ibis::bitvector&) const
	_ZNK4ibis4part9doCompareIfSt9binder1stISt4lessIfEEEElRK7array_tIT_ET0_RKNS_9bitvectorERSC_ @ 1460
;	long ibis::part::doCompare<float, std::binder1st<std::less<float> >, std::binder2nd<std::less<float> > >(array_t<float> const&, std::binder1st<std::less<float> >, std::binder2nd<std::less<float> >, ibis::bitvector const&, ibis::bitvector&) const
	_ZNK4ibis4part9doCompareIfSt9binder1stISt4lessIfEESt9binder2ndIS4_EEElRK7array_tIT_ET0_T1_RKNS_9bitvectorERSF_ @ 1461
;	long ibis::part::doCompare<float, std::binder1st<std::less<float> >, std::binder2nd<std::less_equal<float> > >(array_t<float> const&, std::binder1st<std::less<float> >, std::binder2nd<std::less_equal<float> >, ibis::bitvector const&, ibis::bitvector&) const
	_ZNK4ibis4part9doCompareIfSt9binder1stISt4lessIfEESt9binder2ndISt10less_equalIfEEEElRK7array_tIT_ET0_T1_RKNS_9bitvectorERSH_ @ 1462
;	long ibis::part::doCompare<float, std::binder1st<std::less<float> >, std::binder2nd<std::greater_equal<float> > >(array_t<float> const&, std::binder1st<std::less<float> >, std::binder2nd<std::greater_equal<float> >, ibis::bitvector const&, ibis::bitvector&) const
	_ZNK4ibis4part9doCompareIfSt9binder1stISt4lessIfEESt9binder2ndISt13greater_equalIfEEEElRK7array_tIT_ET0_T1_RKNS_9bitvectorERSH_ @ 1463
;	long ibis::part::doCompare<float, std::binder1st<std::less<float> >, std::binder2nd<std::greater<float> > >(array_t<float> const&, std::binder1st<std::less<float> >, std::binder2nd<std::greater<float> >, ibis::bitvector const&, ibis::bitvector&) const
	_ZNK4ibis4part9doCompareIfSt9binder1stISt4lessIfEESt9binder2ndISt7greaterIfEEEElRK7array_tIT_ET0_T1_RKNS_9bitvectorERSH_ @ 1464
;	long ibis::part::doCompare<float, std::binder1st<std::less<float> >, std::binder2nd<std::equal_to<float> > >(array_t<float> const&, std::binder1st<std::less<float> >, std::binder2nd<std::equal_to<float> >, ibis::bitvector const&, ibis::bitvector&) const
	_ZNK4ibis4part9doCompareIfSt9binder1stISt4lessIfEESt9binder2ndISt8equal_toIfEEEElRK7array_tIT_ET0_T1_RKNS_9bitvectorERSH_ @ 1465
;	long ibis::part::doCompare<float, std::binder1st<std::greater<float> > >(array_t<float> const&, std::binder1st<std::greater<float> >, ibis::bitvector const&, ibis::bitvector&) const
	_ZNK4ibis4part9doCompareIfSt9binder1stISt7greaterIfEEEElRK7array_tIT_ET0_RKNS_9bitvectorERSC_ @ 1466
;	long ibis::part::doCompare<float, std::binder1st<std::greater<float> >, std::binder2nd<std::greater<float> > >(array_t<float> const&, std::binder1st<std::greater<float> >, std::binder2nd<std::greater<float> >, ibis::bitvector const&, ibis::bitvector&) const
	_ZNK4ibis4part9doCompareIfSt9binder1stISt7greaterIfEESt9binder2ndIS4_EEElRK7array_tIT_ET0_T1_RKNS_9bitvectorERSF_ @ 1467
;	long ibis::part::doCompare<float, std::binder1st<std::greater<float> >, std::binder2nd<std::less_equal<float> > >(array_t<float> const&, std::binder1st<std::greater<float> >, std::binder2nd<std::less_equal<float> >, ibis::bitvector const&, ibis::bitvector&) const
	_ZNK4ibis4part9doCompareIfSt9binder1stISt7greaterIfEESt9binder2ndISt10less_equalIfEEEElRK7array_tIT_ET0_T1_RKNS_9bitvectorERSH_ @ 1468
;	long ibis::part::doCompare<float, std::binder1st<std::greater<float> >, std::binder2nd<std::greater_equal<float> > >(array_t<float> const&, std::binder1st<std::greater<float> >, std::binder2nd<std::greater_equal<float> >, ibis::bitvector const&, ibis::bitvector&) const
	_ZNK4ibis4part9doCompareIfSt9binder1stISt7greaterIfEESt9binder2ndISt13greater_equalIfEEEElRK7array_tIT_ET0_T1_RKNS_9bitvectorERSH_ @ 1469
;	long ibis::part::doCompare<float, std::binder1st<std::greater<float> >, std::binder2nd<std::less<float> > >(array_t<float> const&, std::binder1st<std::greater<float> >, std::binder2nd<std::less<float> >, ibis::bitvector const&, ibis::bitvector&) const
	_ZNK4ibis4part9doCompareIfSt9binder1stISt7greaterIfEESt9binder2ndISt4lessIfEEEElRK7array_tIT_ET0_T1_RKNS_9bitvectorERSH_ @ 1470
;	long ibis::part::doCompare<float, std::binder1st<std::greater<float> >, std::binder2nd<std::equal_to<float> > >(array_t<float> const&, std::binder1st<std::greater<float> >, std::binder2nd<std::equal_to<float> >, ibis::bitvector const&, ibis::bitvector&) const
	_ZNK4ibis4part9doCompareIfSt9binder1stISt7greaterIfEESt9binder2ndISt8equal_toIfEEEElRK7array_tIT_ET0_T1_RKNS_9bitvectorERSH_ @ 1471
;	long ibis::part::doCompare<float, std::binder1st<std::equal_to<float> > >(array_t<float> const&, std::binder1st<std::equal_to<float> >, ibis::bitvector const&, ibis::bitvector&) const
	_ZNK4ibis4part9doCompareIfSt9binder1stISt8equal_toIfEEEElRK7array_tIT_ET0_RKNS_9bitvectorERSC_ @ 1472
;	long ibis::part::doCompare<float, std::binder1st<std::equal_to<float> >, std::binder2nd<std::equal_to<float> > >(array_t<float> const&, std::binder1st<std::equal_to<float> >, std::binder2nd<std::equal_to<float> >, ibis::bitvector const&, ibis::bitvector&) const
	_ZNK4ibis4part9doCompareIfSt9binder1stISt8equal_toIfEESt9binder2ndIS4_EEElRK7array_tIT_ET0_T1_RKNS_9bitvectorERSF_ @ 1473
;	long ibis::part::doCompare<float, std::binder1st<std::equal_to<float> >, std::binder2nd<std::less_equal<float> > >(array_t<float> const&, std::binder1st<std::equal_to<float> >, std::binder2nd<std::less_equal<float> >, ibis::bitvector const&, ibis::bitvector&) const
	_ZNK4ibis4part9doCompareIfSt9binder1stISt8equal_toIfEESt9binder2ndISt10less_equalIfEEEElRK7array_tIT_ET0_T1_RKNS_9bitvectorERSH_ @ 1474
;	long ibis::part::doCompare<float, std::binder1st<std::equal_to<float> >, std::binder2nd<std::greater_equal<float> > >(array_t<float> const&, std::binder1st<std::equal_to<float> >, std::binder2nd<std::greater_equal<float> >, ibis::bitvector const&, ibis::bitvector&) const
	_ZNK4ibis4part9doCompareIfSt9binder1stISt8equal_toIfEESt9binder2ndISt13greater_equalIfEEEElRK7array_tIT_ET0_T1_RKNS_9bitvectorERSH_ @ 1475
;	long ibis::part::doCompare<float, std::binder1st<std::equal_to<float> >, std::binder2nd<std::less<float> > >(array_t<float> const&, std::binder1st<std::equal_to<float> >, std::binder2nd<std::less<float> >, ibis::bitvector const&, ibis::bitvector&) const
	_ZNK4ibis4part9doCompareIfSt9binder1stISt8equal_toIfEESt9binder2ndISt4lessIfEEEElRK7array_tIT_ET0_T1_RKNS_9bitvectorERSH_ @ 1476
;	long ibis::part::doCompare<float, std::binder1st<std::equal_to<float> >, std::binder2nd<std::greater<float> > >(array_t<float> const&, std::binder1st<std::equal_to<float> >, std::binder2nd<std::greater<float> >, ibis::bitvector const&, ibis::bitvector&) const
	_ZNK4ibis4part9doCompareIfSt9binder1stISt8equal_toIfEESt9binder2ndISt7greaterIfEEEElRK7array_tIT_ET0_T1_RKNS_9bitvectorERSH_ @ 1477
;	long ibis::part::doCompare<float, std::binder2nd<std::less_equal<float> > >(array_t<float> const&, std::binder2nd<std::less_equal<float> >, ibis::bitvector const&, ibis::bitvector&) const
	_ZNK4ibis4part9doCompareIfSt9binder2ndISt10less_equalIfEEEElRK7array_tIT_ET0_RKNS_9bitvectorERSC_ @ 1478
;	long ibis::part::doCompare<float, std::binder2nd<std::greater_equal<float> > >(array_t<float> const&, std::binder2nd<std::greater_equal<float> >, ibis::bitvector const&, ibis::bitvector&) const
	_ZNK4ibis4part9doCompareIfSt9binder2ndISt13greater_equalIfEEEElRK7array_tIT_ET0_RKNS_9bitvectorERSC_ @ 1479
;	long ibis::part::doCompare<float, std::binder2nd<std::less<float> > >(array_t<float> const&, std::binder2nd<std::less<float> >, ibis::bitvector const&, ibis::bitvector&) const
	_ZNK4ibis4part9doCompareIfSt9binder2ndISt4lessIfEEEElRK7array_tIT_ET0_RKNS_9bitvectorERSC_ @ 1480
;	long ibis::part::doCompare<float, std::binder2nd<std::greater<float> > >(array_t<float> const&, std::binder2nd<std::greater<float> >, ibis::bitvector const&, ibis::bitvector&) const
	_ZNK4ibis4part9doCompareIfSt9binder2ndISt7greaterIfEEEElRK7array_tIT_ET0_RKNS_9bitvectorERSC_ @ 1481
;	long ibis::part::doCompare<float, std::binder2nd<std::equal_to<float> > >(array_t<float> const&, std::binder2nd<std::equal_to<float> >, ibis::bitvector const&, ibis::bitvector&) const
	_ZNK4ibis4part9doCompareIfSt9binder2ndISt8equal_toIfEEEElRK7array_tIT_ET0_RKNS_9bitvectorERSC_ @ 1482
;	void ibis::part::doCompare<unsigned char>(array_t<unsigned char> const&, ibis::bitvector const&, ibis::bitvector&, ibis::qRange const&) const
	_ZNK4ibis4part9doCompareIhEEvRK7array_tIT_ERKNS_9bitvectorERS7_RKNS_6qRangeE @ 1483
;	long ibis::part::doCompare<unsigned char, std::binder1st<std::less_equal<unsigned char> > >(array_t<unsigned char> const&, std::binder1st<std::less_equal<unsigned char> >, ibis::bitvector const&, ibis::bitvector&) const
	_ZNK4ibis4part9doCompareIhSt9binder1stISt10less_equalIhEEEElRK7array_tIT_ET0_RKNS_9bitvectorERSC_ @ 1484
;	long ibis::part::doCompare<unsigned char, std::binder1st<std::less_equal<unsigned char> >, std::binder2nd<std::less_equal<unsigned char> > >(array_t<unsigned char> const&, std::binder1st<std::less_equal<unsigned char> >, std::binder2nd<std::less_equal<unsigned char> >, ibis::bitvector const&, ibis::bitvector&) const
	_ZNK4ibis4part9doCompareIhSt9binder1stISt10less_equalIhEESt9binder2ndIS4_EEElRK7array_tIT_ET0_T1_RKNS_9bitvectorERSF_ @ 1485
;	long ibis::part::doCompare<unsigned char, std::binder1st<std::less_equal<unsigned char> >, std::binder2nd<std::greater_equal<unsigned char> > >(array_t<unsigned char> const&, std::binder1st<std::less_equal<unsigned char> >, std::binder2nd<std::greater_equal<unsigned char> >, ibis::bitvector const&, ibis::bitvector&) const
	_ZNK4ibis4part9doCompareIhSt9binder1stISt10less_equalIhEESt9binder2ndISt13greater_equalIhEEEElRK7array_tIT_ET0_T1_RKNS_9bitvectorERSH_ @ 1486
;	long ibis::part::doCompare<unsigned char, std::binder1st<std::less_equal<unsigned char> >, std::binder2nd<std::less<unsigned char> > >(array_t<unsigned char> const&, std::binder1st<std::less_equal<unsigned char> >, std::binder2nd<std::less<unsigned char> >, ibis::bitvector const&, ibis::bitvector&) const
	_ZNK4ibis4part9doCompareIhSt9binder1stISt10less_equalIhEESt9binder2ndISt4lessIhEEEElRK7array_tIT_ET0_T1_RKNS_9bitvectorERSH_ @ 1487
;	long ibis::part::doCompare<unsigned char, std::binder1st<std::less_equal<unsigned char> >, std::binder2nd<std::greater<unsigned char> > >(array_t<unsigned char> const&, std::binder1st<std::less_equal<unsigned char> >, std::binder2nd<std::greater<unsigned char> >, ibis::bitvector const&, ibis::bitvector&) const
	_ZNK4ibis4part9doCompareIhSt9binder1stISt10less_equalIhEESt9binder2ndISt7greaterIhEEEElRK7array_tIT_ET0_T1_RKNS_9bitvectorERSH_ @ 1488
;	long ibis::part::doCompare<unsigned char, std::binder1st<std::less_equal<unsigned char> >, std::binder2nd<std::equal_to<unsigned char> > >(array_t<unsigned char> const&, std::binder1st<std::less_equal<unsigned char> >, std::binder2nd<std::equal_to<unsigned char> >, ibis::bitvector const&, ibis::bitvector&) const
	_ZNK4ibis4part9doCompareIhSt9binder1stISt10less_equalIhEESt9binder2ndISt8equal_toIhEEEElRK7array_tIT_ET0_T1_RKNS_9bitvectorERSH_ @ 1489
;	long ibis::part::doCompare<unsigned char, std::binder1st<std::greater_equal<unsigned char> > >(array_t<unsigned char> const&, std::binder1st<std::greater_equal<unsigned char> >, ibis::bitvector const&, ibis::bitvector&) const
	_ZNK4ibis4part9doCompareIhSt9binder1stISt13greater_equalIhEEEElRK7array_tIT_ET0_RKNS_9bitvectorERSC_ @ 1490
;	long ibis::part::doCompare<unsigned char, std::binder1st<std::greater_equal<unsigned char> >, std::binder2nd<std::greater_equal<unsigned char> > >(array_t<unsigned char> const&, std::binder1st<std::greater_equal<unsigned char> >, std::binder2nd<std::greater_equal<unsigned char> >, ibis::bitvector const&, ibis::bitvector&) const
	_ZNK4ibis4part9doCompareIhSt9binder1stISt13greater_equalIhEESt9binder2ndIS4_EEElRK7array_tIT_ET0_T1_RKNS_9bitvectorERSF_ @ 1491
;	long ibis::part::doCompare<unsigned char, std::binder1st<std::greater_equal<unsigned char> >, std::binder2nd<std::less_equal<unsigned char> > >(array_t<unsigned char> const&, std::binder1st<std::greater_equal<unsigned char> >, std::binder2nd<std::less_equal<unsigned char> >, ibis::bitvector const&, ibis::bitvector&) const
	_ZNK4ibis4part9doCompareIhSt9binder1stISt13greater_equalIhEESt9binder2ndISt10less_equalIhEEEElRK7array_tIT_ET0_T1_RKNS_9bitvectorERSH_ @ 1492
;	long ibis::part::doCompare<unsigned char, std::binder1st<std::greater_equal<unsigned char> >, std::binder2nd<std::less<unsigned char> > >(array_t<unsigned char> const&, std::binder1st<std::greater_equal<unsigned char> >, std::binder2nd<std::less<unsigned char> >, ibis::bitvector const&, ibis::bitvector&) const
	_ZNK4ibis4part9doCompareIhSt9binder1stISt13greater_equalIhEESt9binder2ndISt4lessIhEEEElRK7array_tIT_ET0_T1_RKNS_9bitvectorERSH_ @ 1493
;	long ibis::part::doCompare<unsigned char, std::binder1st<std::greater_equal<unsigned char> >, std::binder2nd<std::greater<unsigned char> > >(array_t<unsigned char> const&, std::binder1st<std::greater_equal<unsigned char> >, std::binder2nd<std::greater<unsigned char> >, ibis::bitvector const&, ibis::bitvector&) const
	_ZNK4ibis4part9doCompareIhSt9binder1stISt13greater_equalIhEESt9binder2ndISt7greaterIhEEEElRK7array_tIT_ET0_T1_RKNS_9bitvectorERSH_ @ 1494
;	long ibis::part::doCompare<unsigned char, std::binder1st<std::greater_equal<unsigned char> >, std::binder2nd<std::equal_to<unsigned char> > >(array_t<unsigned char> const&, std::binder1st<std::greater_equal<unsigned char> >, std::binder2nd<std::equal_to<unsigned char> >, ibis::bitvector const&, ibis::bitvector&) const
	_ZNK4ibis4part9doCompareIhSt9binder1stISt13greater_equalIhEESt9binder2ndISt8equal_toIhEEEElRK7array_tIT_ET0_T1_RKNS_9bitvectorERSH_ @ 1495
;	long ibis::part::doCompare<unsigned char, std::binder1st<std::less<unsigned char> > >(array_t<unsigned char> const&, std::binder1st<std::less<unsigned char> >, ibis::bitvector const&, ibis::bitvector&) const
	_ZNK4ibis4part9doCompareIhSt9binder1stISt4lessIhEEEElRK7array_tIT_ET0_RKNS_9bitvectorERSC_ @ 1496
;	long ibis::part::doCompare<unsigned char, std::binder1st<std::less<unsigned char> >, std::binder2nd<std::less<unsigned char> > >(array_t<unsigned char> const&, std::binder1st<std::less<unsigned char> >, std::binder2nd<std::less<unsigned char> >, ibis::bitvector const&, ibis::bitvector&) const
	_ZNK4ibis4part9doCompareIhSt9binder1stISt4lessIhEESt9binder2ndIS4_EEElRK7array_tIT_ET0_T1_RKNS_9bitvectorERSF_ @ 1497
;	long ibis::part::doCompare<unsigned char, std::binder1st<std::less<unsigned char> >, std::binder2nd<std::less_equal<unsigned char> > >(array_t<unsigned char> const&, std::binder1st<std::less<unsigned char> >, std::binder2nd<std::less_equal<unsigned char> >, ibis::bitvector const&, ibis::bitvector&) const
	_ZNK4ibis4part9doCompareIhSt9binder1stISt4lessIhEESt9binder2ndISt10less_equalIhEEEElRK7array_tIT_ET0_T1_RKNS_9bitvectorERSH_ @ 1498
;	long ibis::part::doCompare<unsigned char, std::binder1st<std::less<unsigned char> >, std::binder2nd<std::greater_equal<unsigned char> > >(array_t<unsigned char> const&, std::binder1st<std::less<unsigned char> >, std::binder2nd<std::greater_equal<unsigned char> >, ibis::bitvector const&, ibis::bitvector&) const
	_ZNK4ibis4part9doCompareIhSt9binder1stISt4lessIhEESt9binder2ndISt13greater_equalIhEEEElRK7array_tIT_ET0_T1_RKNS_9bitvectorERSH_ @ 1499
;	long ibis::part::doCompare<unsigned char, std::binder1st<std::less<unsigned char> >, std::binder2nd<std::greater<unsigned char> > >(array_t<unsigned char> const&, std::binder1st<std::less<unsigned char> >, std::binder2nd<std::greater<unsigned char> >, ibis::bitvector const&, ibis::bitvector&) const
	_ZNK4ibis4part9doCompareIhSt9binder1stISt4lessIhEESt9binder2ndISt7greaterIhEEEElRK7array_tIT_ET0_T1_RKNS_9bitvectorERSH_ @ 1500
;	long ibis::part::doCompare<unsigned char, std::binder1st<std::less<unsigned char> >, std::binder2nd<std::equal_to<unsigned char> > >(array_t<unsigned char> const&, std::binder1st<std::less<unsigned char> >, std::binder2nd<std::equal_to<unsigned char> >, ibis::bitvector const&, ibis::bitvector&) const
	_ZNK4ibis4part9doCompareIhSt9binder1stISt4lessIhEESt9binder2ndISt8equal_toIhEEEElRK7array_tIT_ET0_T1_RKNS_9bitvectorERSH_ @ 1501
;	long ibis::part::doCompare<unsigned char, std::binder1st<std::greater<unsigned char> > >(array_t<unsigned char> const&, std::binder1st<std::greater<unsigned char> >, ibis::bitvector const&, ibis::bitvector&) const
	_ZNK4ibis4part9doCompareIhSt9binder1stISt7greaterIhEEEElRK7array_tIT_ET0_RKNS_9bitvectorERSC_ @ 1502
;	long ibis::part::doCompare<unsigned char, std::binder1st<std::greater<unsigned char> >, std::binder2nd<std::greater<unsigned char> > >(array_t<unsigned char> const&, std::binder1st<std::greater<unsigned char> >, std::binder2nd<std::greater<unsigned char> >, ibis::bitvector const&, ibis::bitvector&) const
	_ZNK4ibis4part9doCompareIhSt9binder1stISt7greaterIhEESt9binder2ndIS4_EEElRK7array_tIT_ET0_T1_RKNS_9bitvectorERSF_ @ 1503
;	long ibis::part::doCompare<unsigned char, std::binder1st<std::greater<unsigned char> >, std::binder2nd<std::less_equal<unsigned char> > >(array_t<unsigned char> const&, std::binder1st<std::greater<unsigned char> >, std::binder2nd<std::less_equal<unsigned char> >, ibis::bitvector const&, ibis::bitvector&) const
	_ZNK4ibis4part9doCompareIhSt9binder1stISt7greaterIhEESt9binder2ndISt10less_equalIhEEEElRK7array_tIT_ET0_T1_RKNS_9bitvectorERSH_ @ 1504
;	long ibis::part::doCompare<unsigned char, std::binder1st<std::greater<unsigned char> >, std::binder2nd<std::greater_equal<unsigned char> > >(array_t<unsigned char> const&, std::binder1st<std::greater<unsigned char> >, std::binder2nd<std::greater_equal<unsigned char> >, ibis::bitvector const&, ibis::bitvector&) const
	_ZNK4ibis4part9doCompareIhSt9binder1stISt7greaterIhEESt9binder2ndISt13greater_equalIhEEEElRK7array_tIT_ET0_T1_RKNS_9bitvectorERSH_ @ 1505
;	long ibis::part::doCompare<unsigned char, std::binder1st<std::greater<unsigned char> >, std::binder2nd<std::less<unsigned char> > >(array_t<unsigned char> const&, std::binder1st<std::greater<unsigned char> >, std::binder2nd<std::less<unsigned char> >, ibis::bitvector const&, ibis::bitvector&) const
	_ZNK4ibis4part9doCompareIhSt9binder1stISt7greaterIhEESt9binder2ndISt4lessIhEEEElRK7array_tIT_ET0_T1_RKNS_9bitvectorERSH_ @ 1506
;	long ibis::part::doCompare<unsigned char, std::binder1st<std::greater<unsigned char> >, std::binder2nd<std::equal_to<unsigned char> > >(array_t<unsigned char> const&, std::binder1st<std::greater<unsigned char> >, std::binder2nd<std::equal_to<unsigned char> >, ibis::bitvector const&, ibis::bitvector&) const
	_ZNK4ibis4part9doCompareIhSt9binder1stISt7greaterIhEESt9binder2ndISt8equal_toIhEEEElRK7array_tIT_ET0_T1_RKNS_9bitvectorERSH_ @ 1507
;	long ibis::part::doCompare<unsigned char, std::binder1st<std::equal_to<unsigned char> > >(array_t<unsigned char> const&, std::binder1st<std::equal_to<unsigned char> >, ibis::bitvector const&, ibis::bitvector&) const
	_ZNK4ibis4part9doCompareIhSt9binder1stISt8equal_toIhEEEElRK7array_tIT_ET0_RKNS_9bitvectorERSC_ @ 1508
;	long ibis::part::doCompare<unsigned char, std::binder1st<std::equal_to<unsigned char> >, std::binder2nd<std::equal_to<unsigned char> > >(array_t<unsigned char> const&, std::binder1st<std::equal_to<unsigned char> >, std::binder2nd<std::equal_to<unsigned char> >, ibis::bitvector const&, ibis::bitvector&) const
	_ZNK4ibis4part9doCompareIhSt9binder1stISt8equal_toIhEESt9binder2ndIS4_EEElRK7array_tIT_ET0_T1_RKNS_9bitvectorERSF_ @ 1509
;	long ibis::part::doCompare<unsigned char, std::binder1st<std::equal_to<unsigned char> >, std::binder2nd<std::less_equal<unsigned char> > >(array_t<unsigned char> const&, std::binder1st<std::equal_to<unsigned char> >, std::binder2nd<std::less_equal<unsigned char> >, ibis::bitvector const&, ibis::bitvector&) const
	_ZNK4ibis4part9doCompareIhSt9binder1stISt8equal_toIhEESt9binder2ndISt10less_equalIhEEEElRK7array_tIT_ET0_T1_RKNS_9bitvectorERSH_ @ 1510
;	long ibis::part::doCompare<unsigned char, std::binder1st<std::equal_to<unsigned char> >, std::binder2nd<std::greater_equal<unsigned char> > >(array_t<unsigned char> const&, std::binder1st<std::equal_to<unsigned char> >, std::binder2nd<std::greater_equal<unsigned char> >, ibis::bitvector const&, ibis::bitvector&) const
	_ZNK4ibis4part9doCompareIhSt9binder1stISt8equal_toIhEESt9binder2ndISt13greater_equalIhEEEElRK7array_tIT_ET0_T1_RKNS_9bitvectorERSH_ @ 1511
;	long ibis::part::doCompare<unsigned char, std::binder1st<std::equal_to<unsigned char> >, std::binder2nd<std::less<unsigned char> > >(array_t<unsigned char> const&, std::binder1st<std::equal_to<unsigned char> >, std::binder2nd<std::less<unsigned char> >, ibis::bitvector const&, ibis::bitvector&) const
	_ZNK4ibis4part9doCompareIhSt9binder1stISt8equal_toIhEESt9binder2ndISt4lessIhEEEElRK7array_tIT_ET0_T1_RKNS_9bitvectorERSH_ @ 1512
;	long ibis::part::doCompare<unsigned char, std::binder1st<std::equal_to<unsigned char> >, std::binder2nd<std::greater<unsigned char> > >(array_t<unsigned char> const&, std::binder1st<std::equal_to<unsigned char> >, std::binder2nd<std::greater<unsigned char> >, ibis::bitvector const&, ibis::bitvector&) const
	_ZNK4ibis4part9doCompareIhSt9binder1stISt8equal_toIhEESt9binder2ndISt7greaterIhEEEElRK7array_tIT_ET0_T1_RKNS_9bitvectorERSH_ @ 1513
;	long ibis::part::doCompare<unsigned char, std::binder2nd<std::less_equal<unsigned char> > >(array_t<unsigned char> const&, std::binder2nd<std::less_equal<unsigned char> >, ibis::bitvector const&, ibis::bitvector&) const
	_ZNK4ibis4part9doCompareIhSt9binder2ndISt10less_equalIhEEEElRK7array_tIT_ET0_RKNS_9bitvectorERSC_ @ 1514
;	long ibis::part::doCompare<unsigned char, std::binder2nd<std::greater_equal<unsigned char> > >(array_t<unsigned char> const&, std::binder2nd<std::greater_equal<unsigned char> >, ibis::bitvector const&, ibis::bitvector&) const
	_ZNK4ibis4part9doCompareIhSt9binder2ndISt13greater_equalIhEEEElRK7array_tIT_ET0_RKNS_9bitvectorERSC_ @ 1515
;	long ibis::part::doCompare<unsigned char, std::binder2nd<std::less<unsigned char> > >(array_t<unsigned char> const&, std::binder2nd<std::less<unsigned char> >, ibis::bitvector const&, ibis::bitvector&) const
	_ZNK4ibis4part9doCompareIhSt9binder2ndISt4lessIhEEEElRK7array_tIT_ET0_RKNS_9bitvectorERSC_ @ 1516
;	long ibis::part::doCompare<unsigned char, std::binder2nd<std::greater<unsigned char> > >(array_t<unsigned char> const&, std::binder2nd<std::greater<unsigned char> >, ibis::bitvector const&, ibis::bitvector&) const
	_ZNK4ibis4part9doCompareIhSt9binder2ndISt7greaterIhEEEElRK7array_tIT_ET0_RKNS_9bitvectorERSC_ @ 1517
;	long ibis::part::doCompare<unsigned char, std::binder2nd<std::equal_to<unsigned char> > >(array_t<unsigned char> const&, std::binder2nd<std::equal_to<unsigned char> >, ibis::bitvector const&, ibis::bitvector&) const
	_ZNK4ibis4part9doCompareIhSt9binder2ndISt8equal_toIhEEEElRK7array_tIT_ET0_RKNS_9bitvectorERSC_ @ 1518
;	long ibis::part::doCompare<long, std::binder1st<std::less_equal<long> > >(array_t<long> const&, std::binder1st<std::less_equal<long> >, ibis::bitvector const&, ibis::bitvector&) const
	_ZNK4ibis4part9doCompareIlSt9binder1stISt10less_equalIlEEEElRK7array_tIT_ET0_RKNS_9bitvectorERSC_ @ 1519
;	long ibis::part::doCompare<long, std::binder1st<std::less_equal<long> >, std::binder2nd<std::less_equal<long> > >(array_t<long> const&, std::binder1st<std::less_equal<long> >, std::binder2nd<std::less_equal<long> >, ibis::bitvector const&, ibis::bitvector&) const
	_ZNK4ibis4part9doCompareIlSt9binder1stISt10less_equalIlEESt9binder2ndIS4_EEElRK7array_tIT_ET0_T1_RKNS_9bitvectorERSF_ @ 1520
;	long ibis::part::doCompare<long, std::binder1st<std::less_equal<long> >, std::binder2nd<std::greater_equal<long> > >(array_t<long> const&, std::binder1st<std::less_equal<long> >, std::binder2nd<std::greater_equal<long> >, ibis::bitvector const&, ibis::bitvector&) const
	_ZNK4ibis4part9doCompareIlSt9binder1stISt10less_equalIlEESt9binder2ndISt13greater_equalIlEEEElRK7array_tIT_ET0_T1_RKNS_9bitvectorERSH_ @ 1521
;	long ibis::part::doCompare<long, std::binder1st<std::less_equal<long> >, std::binder2nd<std::less<long> > >(array_t<long> const&, std::binder1st<std::less_equal<long> >, std::binder2nd<std::less<long> >, ibis::bitvector const&, ibis::bitvector&) const
	_ZNK4ibis4part9doCompareIlSt9binder1stISt10less_equalIlEESt9binder2ndISt4lessIlEEEElRK7array_tIT_ET0_T1_RKNS_9bitvectorERSH_ @ 1522
;	long ibis::part::doCompare<long, std::binder1st<std::less_equal<long> >, std::binder2nd<std::greater<long> > >(array_t<long> const&, std::binder1st<std::less_equal<long> >, std::binder2nd<std::greater<long> >, ibis::bitvector const&, ibis::bitvector&) const
	_ZNK4ibis4part9doCompareIlSt9binder1stISt10less_equalIlEESt9binder2ndISt7greaterIlEEEElRK7array_tIT_ET0_T1_RKNS_9bitvectorERSH_ @ 1523
;	long ibis::part::doCompare<long, std::binder1st<std::less_equal<long> >, std::binder2nd<std::equal_to<long> > >(array_t<long> const&, std::binder1st<std::less_equal<long> >, std::binder2nd<std::equal_to<long> >, ibis::bitvector const&, ibis::bitvector&) const
	_ZNK4ibis4part9doCompareIlSt9binder1stISt10less_equalIlEESt9binder2ndISt8equal_toIlEEEElRK7array_tIT_ET0_T1_RKNS_9bitvectorERSH_ @ 1524
;	long ibis::part::doCompare<long, std::binder1st<std::greater_equal<long> > >(array_t<long> const&, std::binder1st<std::greater_equal<long> >, ibis::bitvector const&, ibis::bitvector&) const
	_ZNK4ibis4part9doCompareIlSt9binder1stISt13greater_equalIlEEEElRK7array_tIT_ET0_RKNS_9bitvectorERSC_ @ 1525
;	long ibis::part::doCompare<long, std::binder1st<std::greater_equal<long> >, std::binder2nd<std::greater_equal<long> > >(array_t<long> const&, std::binder1st<std::greater_equal<long> >, std::binder2nd<std::greater_equal<long> >, ibis::bitvector const&, ibis::bitvector&) const
	_ZNK4ibis4part9doCompareIlSt9binder1stISt13greater_equalIlEESt9binder2ndIS4_EEElRK7array_tIT_ET0_T1_RKNS_9bitvectorERSF_ @ 1526
;	long ibis::part::doCompare<long, std::binder1st<std::greater_equal<long> >, std::binder2nd<std::less_equal<long> > >(array_t<long> const&, std::binder1st<std::greater_equal<long> >, std::binder2nd<std::less_equal<long> >, ibis::bitvector const&, ibis::bitvector&) const
	_ZNK4ibis4part9doCompareIlSt9binder1stISt13greater_equalIlEESt9binder2ndISt10less_equalIlEEEElRK7array_tIT_ET0_T1_RKNS_9bitvectorERSH_ @ 1527
;	long ibis::part::doCompare<long, std::binder1st<std::greater_equal<long> >, std::binder2nd<std::less<long> > >(array_t<long> const&, std::binder1st<std::greater_equal<long> >, std::binder2nd<std::less<long> >, ibis::bitvector const&, ibis::bitvector&) const
	_ZNK4ibis4part9doCompareIlSt9binder1stISt13greater_equalIlEESt9binder2ndISt4lessIlEEEElRK7array_tIT_ET0_T1_RKNS_9bitvectorERSH_ @ 1528
;	long ibis::part::doCompare<long, std::binder1st<std::greater_equal<long> >, std::binder2nd<std::greater<long> > >(array_t<long> const&, std::binder1st<std::greater_equal<long> >, std::binder2nd<std::greater<long> >, ibis::bitvector const&, ibis::bitvector&) const
	_ZNK4ibis4part9doCompareIlSt9binder1stISt13greater_equalIlEESt9binder2ndISt7greaterIlEEEElRK7array_tIT_ET0_T1_RKNS_9bitvectorERSH_ @ 1529
;	long ibis::part::doCompare<long, std::binder1st<std::greater_equal<long> >, std::binder2nd<std::equal_to<long> > >(array_t<long> const&, std::binder1st<std::greater_equal<long> >, std::binder2nd<std::equal_to<long> >, ibis::bitvector const&, ibis::bitvector&) const
	_ZNK4ibis4part9doCompareIlSt9binder1stISt13greater_equalIlEESt9binder2ndISt8equal_toIlEEEElRK7array_tIT_ET0_T1_RKNS_9bitvectorERSH_ @ 1530
;	long ibis::part::doCompare<long, std::binder1st<std::less<long> > >(array_t<long> const&, std::binder1st<std::less<long> >, ibis::bitvector const&, ibis::bitvector&) const
	_ZNK4ibis4part9doCompareIlSt9binder1stISt4lessIlEEEElRK7array_tIT_ET0_RKNS_9bitvectorERSC_ @ 1531
;	long ibis::part::doCompare<long, std::binder1st<std::less<long> >, std::binder2nd<std::less<long> > >(array_t<long> const&, std::binder1st<std::less<long> >, std::binder2nd<std::less<long> >, ibis::bitvector const&, ibis::bitvector&) const
	_ZNK4ibis4part9doCompareIlSt9binder1stISt4lessIlEESt9binder2ndIS4_EEElRK7array_tIT_ET0_T1_RKNS_9bitvectorERSF_ @ 1532
;	long ibis::part::doCompare<long, std::binder1st<std::less<long> >, std::binder2nd<std::less_equal<long> > >(array_t<long> const&, std::binder1st<std::less<long> >, std::binder2nd<std::less_equal<long> >, ibis::bitvector const&, ibis::bitvector&) const
	_ZNK4ibis4part9doCompareIlSt9binder1stISt4lessIlEESt9binder2ndISt10less_equalIlEEEElRK7array_tIT_ET0_T1_RKNS_9bitvectorERSH_ @ 1533
;	long ibis::part::doCompare<long, std::binder1st<std::less<long> >, std::binder2nd<std::greater_equal<long> > >(array_t<long> const&, std::binder1st<std::less<long> >, std::binder2nd<std::greater_equal<long> >, ibis::bitvector const&, ibis::bitvector&) const
	_ZNK4ibis4part9doCompareIlSt9binder1stISt4lessIlEESt9binder2ndISt13greater_equalIlEEEElRK7array_tIT_ET0_T1_RKNS_9bitvectorERSH_ @ 1534
;	long ibis::part::doCompare<long, std::binder1st<std::less<long> >, std::binder2nd<std::greater<long> > >(array_t<long> const&, std::binder1st<std::less<long> >, std::binder2nd<std::greater<long> >, ibis::bitvector const&, ibis::bitvector&) const
	_ZNK4ibis4part9doCompareIlSt9binder1stISt4lessIlEESt9binder2ndISt7greaterIlEEEElRK7array_tIT_ET0_T1_RKNS_9bitvectorERSH_ @ 1535
;	long ibis::part::doCompare<long, std::binder1st<std::less<long> >, std::binder2nd<std::equal_to<long> > >(array_t<long> const&, std::binder1st<std::less<long> >, std::binder2nd<std::equal_to<long> >, ibis::bitvector const&, ibis::bitvector&) const
	_ZNK4ibis4part9doCompareIlSt9binder1stISt4lessIlEESt9binder2ndISt8equal_toIlEEEElRK7array_tIT_ET0_T1_RKNS_9bitvectorERSH_ @ 1536
;	long ibis::part::doCompare<long, std::binder1st<std::greater<long> > >(array_t<long> const&, std::binder1st<std::greater<long> >, ibis::bitvector const&, ibis::bitvector&) const
	_ZNK4ibis4part9doCompareIlSt9binder1stISt7greaterIlEEEElRK7array_tIT_ET0_RKNS_9bitvectorERSC_ @ 1537
;	long ibis::part::doCompare<long, std::binder1st<std::greater<long> >, std::binder2nd<std::greater<long> > >(array_t<long> const&, std::binder1st<std::greater<long> >, std::binder2nd<std::greater<long> >, ibis::bitvector const&, ibis::bitvector&) const
	_ZNK4ibis4part9doCompareIlSt9binder1stISt7greaterIlEESt9binder2ndIS4_EEElRK7array_tIT_ET0_T1_RKNS_9bitvectorERSF_ @ 1538
;	long ibis::part::doCompare<long, std::binder1st<std::greater<long> >, std::binder2nd<std::less_equal<long> > >(array_t<long> const&, std::binder1st<std::greater<long> >, std::binder2nd<std::less_equal<long> >, ibis::bitvector const&, ibis::bitvector&) const
	_ZNK4ibis4part9doCompareIlSt9binder1stISt7greaterIlEESt9binder2ndISt10less_equalIlEEEElRK7array_tIT_ET0_T1_RKNS_9bitvectorERSH_ @ 1539
;	long ibis::part::doCompare<long, std::binder1st<std::greater<long> >, std::binder2nd<std::greater_equal<long> > >(array_t<long> const&, std::binder1st<std::greater<long> >, std::binder2nd<std::greater_equal<long> >, ibis::bitvector const&, ibis::bitvector&) const
	_ZNK4ibis4part9doCompareIlSt9binder1stISt7greaterIlEESt9binder2ndISt13greater_equalIlEEEElRK7array_tIT_ET0_T1_RKNS_9bitvectorERSH_ @ 1540
;	long ibis::part::doCompare<long, std::binder1st<std::greater<long> >, std::binder2nd<std::less<long> > >(array_t<long> const&, std::binder1st<std::greater<long> >, std::binder2nd<std::less<long> >, ibis::bitvector const&, ibis::bitvector&) const
	_ZNK4ibis4part9doCompareIlSt9binder1stISt7greaterIlEESt9binder2ndISt4lessIlEEEElRK7array_tIT_ET0_T1_RKNS_9bitvectorERSH_ @ 1541
;	long ibis::part::doCompare<long, std::binder1st<std::greater<long> >, std::binder2nd<std::equal_to<long> > >(array_t<long> const&, std::binder1st<std::greater<long> >, std::binder2nd<std::equal_to<long> >, ibis::bitvector const&, ibis::bitvector&) const
	_ZNK4ibis4part9doCompareIlSt9binder1stISt7greaterIlEESt9binder2ndISt8equal_toIlEEEElRK7array_tIT_ET0_T1_RKNS_9bitvectorERSH_ @ 1542
;	long ibis::part::doCompare<long, std::binder1st<std::equal_to<long> > >(array_t<long> const&, std::binder1st<std::equal_to<long> >, ibis::bitvector const&, ibis::bitvector&) const
	_ZNK4ibis4part9doCompareIlSt9binder1stISt8equal_toIlEEEElRK7array_tIT_ET0_RKNS_9bitvectorERSC_ @ 1543
;	long ibis::part::doCompare<long, std::binder1st<std::equal_to<long> >, std::binder2nd<std::equal_to<long> > >(array_t<long> const&, std::binder1st<std::equal_to<long> >, std::binder2nd<std::equal_to<long> >, ibis::bitvector const&, ibis::bitvector&) const
	_ZNK4ibis4part9doCompareIlSt9binder1stISt8equal_toIlEESt9binder2ndIS4_EEElRK7array_tIT_ET0_T1_RKNS_9bitvectorERSF_ @ 1544
;	long ibis::part::doCompare<long, std::binder1st<std::equal_to<long> >, std::binder2nd<std::less_equal<long> > >(array_t<long> const&, std::binder1st<std::equal_to<long> >, std::binder2nd<std::less_equal<long> >, ibis::bitvector const&, ibis::bitvector&) const
	_ZNK4ibis4part9doCompareIlSt9binder1stISt8equal_toIlEESt9binder2ndISt10less_equalIlEEEElRK7array_tIT_ET0_T1_RKNS_9bitvectorERSH_ @ 1545
;	long ibis::part::doCompare<long, std::binder1st<std::equal_to<long> >, std::binder2nd<std::greater_equal<long> > >(array_t<long> const&, std::binder1st<std::equal_to<long> >, std::binder2nd<std::greater_equal<long> >, ibis::bitvector const&, ibis::bitvector&) const
	_ZNK4ibis4part9doCompareIlSt9binder1stISt8equal_toIlEESt9binder2ndISt13greater_equalIlEEEElRK7array_tIT_ET0_T1_RKNS_9bitvectorERSH_ @ 1546
;	long ibis::part::doCompare<long, std::binder1st<std::equal_to<long> >, std::binder2nd<std::less<long> > >(array_t<long> const&, std::binder1st<std::equal_to<long> >, std::binder2nd<std::less<long> >, ibis::bitvector const&, ibis::bitvector&) const
	_ZNK4ibis4part9doCompareIlSt9binder1stISt8equal_toIlEESt9binder2ndISt4lessIlEEEElRK7array_tIT_ET0_T1_RKNS_9bitvectorERSH_ @ 1547
;	long ibis::part::doCompare<long, std::binder1st<std::equal_to<long> >, std::binder2nd<std::greater<long> > >(array_t<long> const&, std::binder1st<std::equal_to<long> >, std::binder2nd<std::greater<long> >, ibis::bitvector const&, ibis::bitvector&) const
	_ZNK4ibis4part9doCompareIlSt9binder1stISt8equal_toIlEESt9binder2ndISt7greaterIlEEEElRK7array_tIT_ET0_T1_RKNS_9bitvectorERSH_ @ 1548
;	long ibis::part::doCompare<long, std::binder2nd<std::less_equal<long> > >(array_t<long> const&, std::binder2nd<std::less_equal<long> >, ibis::bitvector const&, ibis::bitvector&) const
	_ZNK4ibis4part9doCompareIlSt9binder2ndISt10less_equalIlEEEElRK7array_tIT_ET0_RKNS_9bitvectorERSC_ @ 1549
;	long ibis::part::doCompare<long, std::binder2nd<std::greater_equal<long> > >(array_t<long> const&, std::binder2nd<std::greater_equal<long> >, ibis::bitvector const&, ibis::bitvector&) const
	_ZNK4ibis4part9doCompareIlSt9binder2ndISt13greater_equalIlEEEElRK7array_tIT_ET0_RKNS_9bitvectorERSC_ @ 1550
;	long ibis::part::doCompare<long, std::binder2nd<std::less<long> > >(array_t<long> const&, std::binder2nd<std::less<long> >, ibis::bitvector const&, ibis::bitvector&) const
	_ZNK4ibis4part9doCompareIlSt9binder2ndISt4lessIlEEEElRK7array_tIT_ET0_RKNS_9bitvectorERSC_ @ 1551
;	long ibis::part::doCompare<long, std::binder2nd<std::greater<long> > >(array_t<long> const&, std::binder2nd<std::greater<long> >, ibis::bitvector const&, ibis::bitvector&) const
	_ZNK4ibis4part9doCompareIlSt9binder2ndISt7greaterIlEEEElRK7array_tIT_ET0_RKNS_9bitvectorERSC_ @ 1552
;	long ibis::part::doCompare<long, std::binder2nd<std::equal_to<long> > >(array_t<long> const&, std::binder2nd<std::equal_to<long> >, ibis::bitvector const&, ibis::bitvector&) const
	_ZNK4ibis4part9doCompareIlSt9binder2ndISt8equal_toIlEEEElRK7array_tIT_ET0_RKNS_9bitvectorERSC_ @ 1553
;	long ibis::part::doCompare<unsigned long, std::binder1st<std::less_equal<unsigned long> > >(array_t<unsigned long> const&, std::binder1st<std::less_equal<unsigned long> >, ibis::bitvector const&, ibis::bitvector&) const
	_ZNK4ibis4part9doCompareImSt9binder1stISt10less_equalImEEEElRK7array_tIT_ET0_RKNS_9bitvectorERSC_ @ 1554
;	long ibis::part::doCompare<unsigned long, std::binder1st<std::less_equal<unsigned long> >, std::binder2nd<std::less_equal<unsigned long> > >(array_t<unsigned long> const&, std::binder1st<std::less_equal<unsigned long> >, std::binder2nd<std::less_equal<unsigned long> >, ibis::bitvector const&, ibis::bitvector&) const
	_ZNK4ibis4part9doCompareImSt9binder1stISt10less_equalImEESt9binder2ndIS4_EEElRK7array_tIT_ET0_T1_RKNS_9bitvectorERSF_ @ 1555
;	long ibis::part::doCompare<unsigned long, std::binder1st<std::less_equal<unsigned long> >, std::binder2nd<std::greater_equal<unsigned long> > >(array_t<unsigned long> const&, std::binder1st<std::less_equal<unsigned long> >, std::binder2nd<std::greater_equal<unsigned long> >, ibis::bitvector const&, ibis::bitvector&) const
	_ZNK4ibis4part9doCompareImSt9binder1stISt10less_equalImEESt9binder2ndISt13greater_equalImEEEElRK7array_tIT_ET0_T1_RKNS_9bitvectorERSH_ @ 1556
;	long ibis::part::doCompare<unsigned long, std::binder1st<std::less_equal<unsigned long> >, std::binder2nd<std::less<unsigned long> > >(array_t<unsigned long> const&, std::binder1st<std::less_equal<unsigned long> >, std::binder2nd<std::less<unsigned long> >, ibis::bitvector const&, ibis::bitvector&) const
	_ZNK4ibis4part9doCompareImSt9binder1stISt10less_equalImEESt9binder2ndISt4lessImEEEElRK7array_tIT_ET0_T1_RKNS_9bitvectorERSH_ @ 1557
;	long ibis::part::doCompare<unsigned long, std::binder1st<std::less_equal<unsigned long> >, std::binder2nd<std::greater<unsigned long> > >(array_t<unsigned long> const&, std::binder1st<std::less_equal<unsigned long> >, std::binder2nd<std::greater<unsigned long> >, ibis::bitvector const&, ibis::bitvector&) const
	_ZNK4ibis4part9doCompareImSt9binder1stISt10less_equalImEESt9binder2ndISt7greaterImEEEElRK7array_tIT_ET0_T1_RKNS_9bitvectorERSH_ @ 1558
;	long ibis::part::doCompare<unsigned long, std::binder1st<std::less_equal<unsigned long> >, std::binder2nd<std::equal_to<unsigned long> > >(array_t<unsigned long> const&, std::binder1st<std::less_equal<unsigned long> >, std::binder2nd<std::equal_to<unsigned long> >, ibis::bitvector const&, ibis::bitvector&) const
	_ZNK4ibis4part9doCompareImSt9binder1stISt10less_equalImEESt9binder2ndISt8equal_toImEEEElRK7array_tIT_ET0_T1_RKNS_9bitvectorERSH_ @ 1559
;	long ibis::part::doCompare<unsigned long, std::binder1st<std::greater_equal<unsigned long> > >(array_t<unsigned long> const&, std::binder1st<std::greater_equal<unsigned long> >, ibis::bitvector const&, ibis::bitvector&) const
	_ZNK4ibis4part9doCompareImSt9binder1stISt13greater_equalImEEEElRK7array_tIT_ET0_RKNS_9bitvectorERSC_ @ 1560
;	long ibis::part::doCompare<unsigned long, std::binder1st<std::greater_equal<unsigned long> >, std::binder2nd<std::greater_equal<unsigned long> > >(array_t<unsigned long> const&, std::binder1st<std::greater_equal<unsigned long> >, std::binder2nd<std::greater_equal<unsigned long> >, ibis::bitvector const&, ibis::bitvector&) const
	_ZNK4ibis4part9doCompareImSt9binder1stISt13greater_equalImEESt9binder2ndIS4_EEElRK7array_tIT_ET0_T1_RKNS_9bitvectorERSF_ @ 1561
;	long ibis::part::doCompare<unsigned long, std::binder1st<std::greater_equal<unsigned long> >, std::binder2nd<std::less_equal<unsigned long> > >(array_t<unsigned long> const&, std::binder1st<std::greater_equal<unsigned long> >, std::binder2nd<std::less_equal<unsigned long> >, ibis::bitvector const&, ibis::bitvector&) const
	_ZNK4ibis4part9doCompareImSt9binder1stISt13greater_equalImEESt9binder2ndISt10less_equalImEEEElRK7array_tIT_ET0_T1_RKNS_9bitvectorERSH_ @ 1562
;	long ibis::part::doCompare<unsigned long, std::binder1st<std::greater_equal<unsigned long> >, std::binder2nd<std::less<unsigned long> > >(array_t<unsigned long> const&, std::binder1st<std::greater_equal<unsigned long> >, std::binder2nd<std::less<unsigned long> >, ibis::bitvector const&, ibis::bitvector&) const
	_ZNK4ibis4part9doCompareImSt9binder1stISt13greater_equalImEESt9binder2ndISt4lessImEEEElRK7array_tIT_ET0_T1_RKNS_9bitvectorERSH_ @ 1563
;	long ibis::part::doCompare<unsigned long, std::binder1st<std::greater_equal<unsigned long> >, std::binder2nd<std::greater<unsigned long> > >(array_t<unsigned long> const&, std::binder1st<std::greater_equal<unsigned long> >, std::binder2nd<std::greater<unsigned long> >, ibis::bitvector const&, ibis::bitvector&) const
	_ZNK4ibis4part9doCompareImSt9binder1stISt13greater_equalImEESt9binder2ndISt7greaterImEEEElRK7array_tIT_ET0_T1_RKNS_9bitvectorERSH_ @ 1564
;	long ibis::part::doCompare<unsigned long, std::binder1st<std::greater_equal<unsigned long> >, std::binder2nd<std::equal_to<unsigned long> > >(array_t<unsigned long> const&, std::binder1st<std::greater_equal<unsigned long> >, std::binder2nd<std::equal_to<unsigned long> >, ibis::bitvector const&, ibis::bitvector&) const
	_ZNK4ibis4part9doCompareImSt9binder1stISt13greater_equalImEESt9binder2ndISt8equal_toImEEEElRK7array_tIT_ET0_T1_RKNS_9bitvectorERSH_ @ 1565
;	long ibis::part::doCompare<unsigned long, std::binder1st<std::less<unsigned long> > >(array_t<unsigned long> const&, std::binder1st<std::less<unsigned long> >, ibis::bitvector const&, ibis::bitvector&) const
	_ZNK4ibis4part9doCompareImSt9binder1stISt4lessImEEEElRK7array_tIT_ET0_RKNS_9bitvectorERSC_ @ 1566
;	long ibis::part::doCompare<unsigned long, std::binder1st<std::less<unsigned long> >, std::binder2nd<std::less<unsigned long> > >(array_t<unsigned long> const&, std::binder1st<std::less<unsigned long> >, std::binder2nd<std::less<unsigned long> >, ibis::bitvector const&, ibis::bitvector&) const
	_ZNK4ibis4part9doCompareImSt9binder1stISt4lessImEESt9binder2ndIS4_EEElRK7array_tIT_ET0_T1_RKNS_9bitvectorERSF_ @ 1567
;	long ibis::part::doCompare<unsigned long, std::binder1st<std::less<unsigned long> >, std::binder2nd<std::less_equal<unsigned long> > >(array_t<unsigned long> const&, std::binder1st<std::less<unsigned long> >, std::binder2nd<std::less_equal<unsigned long> >, ibis::bitvector const&, ibis::bitvector&) const
	_ZNK4ibis4part9doCompareImSt9binder1stISt4lessImEESt9binder2ndISt10less_equalImEEEElRK7array_tIT_ET0_T1_RKNS_9bitvectorERSH_ @ 1568
;	long ibis::part::doCompare<unsigned long, std::binder1st<std::less<unsigned long> >, std::binder2nd<std::greater_equal<unsigned long> > >(array_t<unsigned long> const&, std::binder1st<std::less<unsigned long> >, std::binder2nd<std::greater_equal<unsigned long> >, ibis::bitvector const&, ibis::bitvector&) const
	_ZNK4ibis4part9doCompareImSt9binder1stISt4lessImEESt9binder2ndISt13greater_equalImEEEElRK7array_tIT_ET0_T1_RKNS_9bitvectorERSH_ @ 1569
;	long ibis::part::doCompare<unsigned long, std::binder1st<std::less<unsigned long> >, std::binder2nd<std::greater<unsigned long> > >(array_t<unsigned long> const&, std::binder1st<std::less<unsigned long> >, std::binder2nd<std::greater<unsigned long> >, ibis::bitvector const&, ibis::bitvector&) const
	_ZNK4ibis4part9doCompareImSt9binder1stISt4lessImEESt9binder2ndISt7greaterImEEEElRK7array_tIT_ET0_T1_RKNS_9bitvectorERSH_ @ 1570
;	long ibis::part::doCompare<unsigned long, std::binder1st<std::less<unsigned long> >, std::binder2nd<std::equal_to<unsigned long> > >(array_t<unsigned long> const&, std::binder1st<std::less<unsigned long> >, std::binder2nd<std::equal_to<unsigned long> >, ibis::bitvector const&, ibis::bitvector&) const
	_ZNK4ibis4part9doCompareImSt9binder1stISt4lessImEESt9binder2ndISt8equal_toImEEEElRK7array_tIT_ET0_T1_RKNS_9bitvectorERSH_ @ 1571
;	long ibis::part::doCompare<unsigned long, std::binder1st<std::greater<unsigned long> > >(array_t<unsigned long> const&, std::binder1st<std::greater<unsigned long> >, ibis::bitvector const&, ibis::bitvector&) const
	_ZNK4ibis4part9doCompareImSt9binder1stISt7greaterImEEEElRK7array_tIT_ET0_RKNS_9bitvectorERSC_ @ 1572
;	long ibis::part::doCompare<unsigned long, std::binder1st<std::greater<unsigned long> >, std::binder2nd<std::greater<unsigned long> > >(array_t<unsigned long> const&, std::binder1st<std::greater<unsigned long> >, std::binder2nd<std::greater<unsigned long> >, ibis::bitvector const&, ibis::bitvector&) const
	_ZNK4ibis4part9doCompareImSt9binder1stISt7greaterImEESt9binder2ndIS4_EEElRK7array_tIT_ET0_T1_RKNS_9bitvectorERSF_ @ 1573
;	long ibis::part::doCompare<unsigned long, std::binder1st<std::greater<unsigned long> >, std::binder2nd<std::less_equal<unsigned long> > >(array_t<unsigned long> const&, std::binder1st<std::greater<unsigned long> >, std::binder2nd<std::less_equal<unsigned long> >, ibis::bitvector const&, ibis::bitvector&) const
	_ZNK4ibis4part9doCompareImSt9binder1stISt7greaterImEESt9binder2ndISt10less_equalImEEEElRK7array_tIT_ET0_T1_RKNS_9bitvectorERSH_ @ 1574
;	long ibis::part::doCompare<unsigned long, std::binder1st<std::greater<unsigned long> >, std::binder2nd<std::greater_equal<unsigned long> > >(array_t<unsigned long> const&, std::binder1st<std::greater<unsigned long> >, std::binder2nd<std::greater_equal<unsigned long> >, ibis::bitvector const&, ibis::bitvector&) const
	_ZNK4ibis4part9doCompareImSt9binder1stISt7greaterImEESt9binder2ndISt13greater_equalImEEEElRK7array_tIT_ET0_T1_RKNS_9bitvectorERSH_ @ 1575
;	long ibis::part::doCompare<unsigned long, std::binder1st<std::greater<unsigned long> >, std::binder2nd<std::less<unsigned long> > >(array_t<unsigned long> const&, std::binder1st<std::greater<unsigned long> >, std::binder2nd<std::less<unsigned long> >, ibis::bitvector const&, ibis::bitvector&) const
	_ZNK4ibis4part9doCompareImSt9binder1stISt7greaterImEESt9binder2ndISt4lessImEEEElRK7array_tIT_ET0_T1_RKNS_9bitvectorERSH_ @ 1576
;	long ibis::part::doCompare<unsigned long, std::binder1st<std::greater<unsigned long> >, std::binder2nd<std::equal_to<unsigned long> > >(array_t<unsigned long> const&, std::binder1st<std::greater<unsigned long> >, std::binder2nd<std::equal_to<unsigned long> >, ibis::bitvector const&, ibis::bitvector&) const
	_ZNK4ibis4part9doCompareImSt9binder1stISt7greaterImEESt9binder2ndISt8equal_toImEEEElRK7array_tIT_ET0_T1_RKNS_9bitvectorERSH_ @ 1577
;	long ibis::part::doCompare<unsigned long, std::binder1st<std::equal_to<unsigned long> > >(array_t<unsigned long> const&, std::binder1st<std::equal_to<unsigned long> >, ibis::bitvector const&, ibis::bitvector&) const
	_ZNK4ibis4part9doCompareImSt9binder1stISt8equal_toImEEEElRK7array_tIT_ET0_RKNS_9bitvectorERSC_ @ 1578
;	long ibis::part::doCompare<unsigned long, std::binder1st<std::equal_to<unsigned long> >, std::binder2nd<std::equal_to<unsigned long> > >(array_t<unsigned long> const&, std::binder1st<std::equal_to<unsigned long> >, std::binder2nd<std::equal_to<unsigned long> >, ibis::bitvector const&, ibis::bitvector&) const
	_ZNK4ibis4part9doCompareImSt9binder1stISt8equal_toImEESt9binder2ndIS4_EEElRK7array_tIT_ET0_T1_RKNS_9bitvectorERSF_ @ 1579
;	long ibis::part::doCompare<unsigned long, std::binder1st<std::equal_to<unsigned long> >, std::binder2nd<std::less_equal<unsigned long> > >(array_t<unsigned long> const&, std::binder1st<std::equal_to<unsigned long> >, std::binder2nd<std::less_equal<unsigned long> >, ibis::bitvector const&, ibis::bitvector&) const
	_ZNK4ibis4part9doCompareImSt9binder1stISt8equal_toImEESt9binder2ndISt10less_equalImEEEElRK7array_tIT_ET0_T1_RKNS_9bitvectorERSH_ @ 1580
;	long ibis::part::doCompare<unsigned long, std::binder1st<std::equal_to<unsigned long> >, std::binder2nd<std::greater_equal<unsigned long> > >(array_t<unsigned long> const&, std::binder1st<std::equal_to<unsigned long> >, std::binder2nd<std::greater_equal<unsigned long> >, ibis::bitvector const&, ibis::bitvector&) const
	_ZNK4ibis4part9doCompareImSt9binder1stISt8equal_toImEESt9binder2ndISt13greater_equalImEEEElRK7array_tIT_ET0_T1_RKNS_9bitvectorERSH_ @ 1581
;	long ibis::part::doCompare<unsigned long, std::binder1st<std::equal_to<unsigned long> >, std::binder2nd<std::less<unsigned long> > >(array_t<unsigned long> const&, std::binder1st<std::equal_to<unsigned long> >, std::binder2nd<std::less<unsigned long> >, ibis::bitvector const&, ibis::bitvector&) const
	_ZNK4ibis4part9doCompareImSt9binder1stISt8equal_toImEESt9binder2ndISt4lessImEEEElRK7array_tIT_ET0_T1_RKNS_9bitvectorERSH_ @ 1582
;	long ibis::part::doCompare<unsigned long, std::binder1st<std::equal_to<unsigned long> >, std::binder2nd<std::greater<unsigned long> > >(array_t<unsigned long> const&, std::binder1st<std::equal_to<unsigned long> >, std::binder2nd<std::greater<unsigned long> >, ibis::bitvector const&, ibis::bitvector&) const
	_ZNK4ibis4part9doCompareImSt9binder1stISt8equal_toImEESt9binder2ndISt7greaterImEEEElRK7array_tIT_ET0_T1_RKNS_9bitvectorERSH_ @ 1583
;	long ibis::part::doCompare<unsigned long, std::binder2nd<std::less_equal<unsigned long> > >(array_t<unsigned long> const&, std::binder2nd<std::less_equal<unsigned long> >, ibis::bitvector const&, ibis::bitvector&) const
	_ZNK4ibis4part9doCompareImSt9binder2ndISt10less_equalImEEEElRK7array_tIT_ET0_RKNS_9bitvectorERSC_ @ 1584
;	long ibis::part::doCompare<unsigned long, std::binder2nd<std::greater_equal<unsigned long> > >(array_t<unsigned long> const&, std::binder2nd<std::greater_equal<unsigned long> >, ibis::bitvector const&, ibis::bitvector&) const
	_ZNK4ibis4part9doCompareImSt9binder2ndISt13greater_equalImEEEElRK7array_tIT_ET0_RKNS_9bitvectorERSC_ @ 1585
;	long ibis::part::doCompare<unsigned long, std::binder2nd<std::less<unsigned long> > >(array_t<unsigned long> const&, std::binder2nd<std::less<unsigned long> >, ibis::bitvector const&, ibis::bitvector&) const
	_ZNK4ibis4part9doCompareImSt9binder2ndISt4lessImEEEElRK7array_tIT_ET0_RKNS_9bitvectorERSC_ @ 1586
;	long ibis::part::doCompare<unsigned long, std::binder2nd<std::greater<unsigned long> > >(array_t<unsigned long> const&, std::binder2nd<std::greater<unsigned long> >, ibis::bitvector const&, ibis::bitvector&) const
	_ZNK4ibis4part9doCompareImSt9binder2ndISt7greaterImEEEElRK7array_tIT_ET0_RKNS_9bitvectorERSC_ @ 1587
;	long ibis::part::doCompare<unsigned long, std::binder2nd<std::equal_to<unsigned long> > >(array_t<unsigned long> const&, std::binder2nd<std::equal_to<unsigned long> >, ibis::bitvector const&, ibis::bitvector&) const
	_ZNK4ibis4part9doCompareImSt9binder2ndISt8equal_toImEEEElRK7array_tIT_ET0_RKNS_9bitvectorERSC_ @ 1588
;	void ibis::part::doCompare<short>(array_t<short> const&, ibis::bitvector const&, ibis::bitvector&, ibis::qRange const&) const
	_ZNK4ibis4part9doCompareIsEEvRK7array_tIT_ERKNS_9bitvectorERS7_RKNS_6qRangeE @ 1589
;	long ibis::part::doCompare<short, std::binder1st<std::less_equal<short> > >(array_t<short> const&, std::binder1st<std::less_equal<short> >, ibis::bitvector const&, ibis::bitvector&) const
	_ZNK4ibis4part9doCompareIsSt9binder1stISt10less_equalIsEEEElRK7array_tIT_ET0_RKNS_9bitvectorERSC_ @ 1590
;	long ibis::part::doCompare<short, std::binder1st<std::less_equal<short> >, std::binder2nd<std::less_equal<short> > >(array_t<short> const&, std::binder1st<std::less_equal<short> >, std::binder2nd<std::less_equal<short> >, ibis::bitvector const&, ibis::bitvector&) const
	_ZNK4ibis4part9doCompareIsSt9binder1stISt10less_equalIsEESt9binder2ndIS4_EEElRK7array_tIT_ET0_T1_RKNS_9bitvectorERSF_ @ 1591
;	long ibis::part::doCompare<short, std::binder1st<std::less_equal<short> >, std::binder2nd<std::greater_equal<short> > >(array_t<short> const&, std::binder1st<std::less_equal<short> >, std::binder2nd<std::greater_equal<short> >, ibis::bitvector const&, ibis::bitvector&) const
	_ZNK4ibis4part9doCompareIsSt9binder1stISt10less_equalIsEESt9binder2ndISt13greater_equalIsEEEElRK7array_tIT_ET0_T1_RKNS_9bitvectorERSH_ @ 1592
;	long ibis::part::doCompare<short, std::binder1st<std::less_equal<short> >, std::binder2nd<std::less<short> > >(array_t<short> const&, std::binder1st<std::less_equal<short> >, std::binder2nd<std::less<short> >, ibis::bitvector const&, ibis::bitvector&) const
	_ZNK4ibis4part9doCompareIsSt9binder1stISt10less_equalIsEESt9binder2ndISt4lessIsEEEElRK7array_tIT_ET0_T1_RKNS_9bitvectorERSH_ @ 1593
;	long ibis::part::doCompare<short, std::binder1st<std::less_equal<short> >, std::binder2nd<std::greater<short> > >(array_t<short> const&, std::binder1st<std::less_equal<short> >, std::binder2nd<std::greater<short> >, ibis::bitvector const&, ibis::bitvector&) const
	_ZNK4ibis4part9doCompareIsSt9binder1stISt10less_equalIsEESt9binder2ndISt7greaterIsEEEElRK7array_tIT_ET0_T1_RKNS_9bitvectorERSH_ @ 1594
;	long ibis::part::doCompare<short, std::binder1st<std::less_equal<short> >, std::binder2nd<std::equal_to<short> > >(array_t<short> const&, std::binder1st<std::less_equal<short> >, std::binder2nd<std::equal_to<short> >, ibis::bitvector const&, ibis::bitvector&) const
	_ZNK4ibis4part9doCompareIsSt9binder1stISt10less_equalIsEESt9binder2ndISt8equal_toIsEEEElRK7array_tIT_ET0_T1_RKNS_9bitvectorERSH_ @ 1595
;	long ibis::part::doCompare<short, std::binder1st<std::greater_equal<short> > >(array_t<short> const&, std::binder1st<std::greater_equal<short> >, ibis::bitvector const&, ibis::bitvector&) const
	_ZNK4ibis4part9doCompareIsSt9binder1stISt13greater_equalIsEEEElRK7array_tIT_ET0_RKNS_9bitvectorERSC_ @ 1596
;	long ibis::part::doCompare<short, std::binder1st<std::greater_equal<short> >, std::binder2nd<std::greater_equal<short> > >(array_t<short> const&, std::binder1st<std::greater_equal<short> >, std::binder2nd<std::greater_equal<short> >, ibis::bitvector const&, ibis::bitvector&) const
	_ZNK4ibis4part9doCompareIsSt9binder1stISt13greater_equalIsEESt9binder2ndIS4_EEElRK7array_tIT_ET0_T1_RKNS_9bitvectorERSF_ @ 1597
;	long ibis::part::doCompare<short, std::binder1st<std::greater_equal<short> >, std::binder2nd<std::less_equal<short> > >(array_t<short> const&, std::binder1st<std::greater_equal<short> >, std::binder2nd<std::less_equal<short> >, ibis::bitvector const&, ibis::bitvector&) const
	_ZNK4ibis4part9doCompareIsSt9binder1stISt13greater_equalIsEESt9binder2ndISt10less_equalIsEEEElRK7array_tIT_ET0_T1_RKNS_9bitvectorERSH_ @ 1598
;	long ibis::part::doCompare<short, std::binder1st<std::greater_equal<short> >, std::binder2nd<std::less<short> > >(array_t<short> const&, std::binder1st<std::greater_equal<short> >, std::binder2nd<std::less<short> >, ibis::bitvector const&, ibis::bitvector&) const
	_ZNK4ibis4part9doCompareIsSt9binder1stISt13greater_equalIsEESt9binder2ndISt4lessIsEEEElRK7array_tIT_ET0_T1_RKNS_9bitvectorERSH_ @ 1599
;	long ibis::part::doCompare<short, std::binder1st<std::greater_equal<short> >, std::binder2nd<std::greater<short> > >(array_t<short> const&, std::binder1st<std::greater_equal<short> >, std::binder2nd<std::greater<short> >, ibis::bitvector const&, ibis::bitvector&) const
	_ZNK4ibis4part9doCompareIsSt9binder1stISt13greater_equalIsEESt9binder2ndISt7greaterIsEEEElRK7array_tIT_ET0_T1_RKNS_9bitvectorERSH_ @ 1600
;	long ibis::part::doCompare<short, std::binder1st<std::greater_equal<short> >, std::binder2nd<std::equal_to<short> > >(array_t<short> const&, std::binder1st<std::greater_equal<short> >, std::binder2nd<std::equal_to<short> >, ibis::bitvector const&, ibis::bitvector&) const
	_ZNK4ibis4part9doCompareIsSt9binder1stISt13greater_equalIsEESt9binder2ndISt8equal_toIsEEEElRK7array_tIT_ET0_T1_RKNS_9bitvectorERSH_ @ 1601
;	long ibis::part::doCompare<short, std::binder1st<std::less<short> > >(array_t<short> const&, std::binder1st<std::less<short> >, ibis::bitvector const&, ibis::bitvector&) const
	_ZNK4ibis4part9doCompareIsSt9binder1stISt4lessIsEEEElRK7array_tIT_ET0_RKNS_9bitvectorERSC_ @ 1602
;	long ibis::part::doCompare<short, std::binder1st<std::less<short> >, std::binder2nd<std::less<short> > >(array_t<short> const&, std::binder1st<std::less<short> >, std::binder2nd<std::less<short> >, ibis::bitvector const&, ibis::bitvector&) const
	_ZNK4ibis4part9doCompareIsSt9binder1stISt4lessIsEESt9binder2ndIS4_EEElRK7array_tIT_ET0_T1_RKNS_9bitvectorERSF_ @ 1603
;	long ibis::part::doCompare<short, std::binder1st<std::less<short> >, std::binder2nd<std::less_equal<short> > >(array_t<short> const&, std::binder1st<std::less<short> >, std::binder2nd<std::less_equal<short> >, ibis::bitvector const&, ibis::bitvector&) const
	_ZNK4ibis4part9doCompareIsSt9binder1stISt4lessIsEESt9binder2ndISt10less_equalIsEEEElRK7array_tIT_ET0_T1_RKNS_9bitvectorERSH_ @ 1604
;	long ibis::part::doCompare<short, std::binder1st<std::less<short> >, std::binder2nd<std::greater_equal<short> > >(array_t<short> const&, std::binder1st<std::less<short> >, std::binder2nd<std::greater_equal<short> >, ibis::bitvector const&, ibis::bitvector&) const
	_ZNK4ibis4part9doCompareIsSt9binder1stISt4lessIsEESt9binder2ndISt13greater_equalIsEEEElRK7array_tIT_ET0_T1_RKNS_9bitvectorERSH_ @ 1605
;	long ibis::part::doCompare<short, std::binder1st<std::less<short> >, std::binder2nd<std::greater<short> > >(array_t<short> const&, std::binder1st<std::less<short> >, std::binder2nd<std::greater<short> >, ibis::bitvector const&, ibis::bitvector&) const
	_ZNK4ibis4part9doCompareIsSt9binder1stISt4lessIsEESt9binder2ndISt7greaterIsEEEElRK7array_tIT_ET0_T1_RKNS_9bitvectorERSH_ @ 1606
;	long ibis::part::doCompare<short, std::binder1st<std::less<short> >, std::binder2nd<std::equal_to<short> > >(array_t<short> const&, std::binder1st<std::less<short> >, std::binder2nd<std::equal_to<short> >, ibis::bitvector const&, ibis::bitvector&) const
	_ZNK4ibis4part9doCompareIsSt9binder1stISt4lessIsEESt9binder2ndISt8equal_toIsEEEElRK7array_tIT_ET0_T1_RKNS_9bitvectorERSH_ @ 1607
;	long ibis::part::doCompare<short, std::binder1st<std::greater<short> > >(array_t<short> const&, std::binder1st<std::greater<short> >, ibis::bitvector const&, ibis::bitvector&) const
	_ZNK4ibis4part9doCompareIsSt9binder1stISt7greaterIsEEEElRK7array_tIT_ET0_RKNS_9bitvectorERSC_ @ 1608
;	long ibis::part::doCompare<short, std::binder1st<std::greater<short> >, std::binder2nd<std::greater<short> > >(array_t<short> const&, std::binder1st<std::greater<short> >, std::binder2nd<std::greater<short> >, ibis::bitvector const&, ibis::bitvector&) const
	_ZNK4ibis4part9doCompareIsSt9binder1stISt7greaterIsEESt9binder2ndIS4_EEElRK7array_tIT_ET0_T1_RKNS_9bitvectorERSF_ @ 1609
;	long ibis::part::doCompare<short, std::binder1st<std::greater<short> >, std::binder2nd<std::less_equal<short> > >(array_t<short> const&, std::binder1st<std::greater<short> >, std::binder2nd<std::less_equal<short> >, ibis::bitvector const&, ibis::bitvector&) const
	_ZNK4ibis4part9doCompareIsSt9binder1stISt7greaterIsEESt9binder2ndISt10less_equalIsEEEElRK7array_tIT_ET0_T1_RKNS_9bitvectorERSH_ @ 1610
;	long ibis::part::doCompare<short, std::binder1st<std::greater<short> >, std::binder2nd<std::greater_equal<short> > >(array_t<short> const&, std::binder1st<std::greater<short> >, std::binder2nd<std::greater_equal<short> >, ibis::bitvector const&, ibis::bitvector&) const
	_ZNK4ibis4part9doCompareIsSt9binder1stISt7greaterIsEESt9binder2ndISt13greater_equalIsEEEElRK7array_tIT_ET0_T1_RKNS_9bitvectorERSH_ @ 1611
;	long ibis::part::doCompare<short, std::binder1st<std::greater<short> >, std::binder2nd<std::less<short> > >(array_t<short> const&, std::binder1st<std::greater<short> >, std::binder2nd<std::less<short> >, ibis::bitvector const&, ibis::bitvector&) const
	_ZNK4ibis4part9doCompareIsSt9binder1stISt7greaterIsEESt9binder2ndISt4lessIsEEEElRK7array_tIT_ET0_T1_RKNS_9bitvectorERSH_ @ 1612
;	long ibis::part::doCompare<short, std::binder1st<std::greater<short> >, std::binder2nd<std::equal_to<short> > >(array_t<short> const&, std::binder1st<std::greater<short> >, std::binder2nd<std::equal_to<short> >, ibis::bitvector const&, ibis::bitvector&) const
	_ZNK4ibis4part9doCompareIsSt9binder1stISt7greaterIsEESt9binder2ndISt8equal_toIsEEEElRK7array_tIT_ET0_T1_RKNS_9bitvectorERSH_ @ 1613
;	long ibis::part::doCompare<short, std::binder1st<std::equal_to<short> > >(array_t<short> const&, std::binder1st<std::equal_to<short> >, ibis::bitvector const&, ibis::bitvector&) const
	_ZNK4ibis4part9doCompareIsSt9binder1stISt8equal_toIsEEEElRK7array_tIT_ET0_RKNS_9bitvectorERSC_ @ 1614
;	long ibis::part::doCompare<short, std::binder1st<std::equal_to<short> >, std::binder2nd<std::equal_to<short> > >(array_t<short> const&, std::binder1st<std::equal_to<short> >, std::binder2nd<std::equal_to<short> >, ibis::bitvector const&, ibis::bitvector&) const
	_ZNK4ibis4part9doCompareIsSt9binder1stISt8equal_toIsEESt9binder2ndIS4_EEElRK7array_tIT_ET0_T1_RKNS_9bitvectorERSF_ @ 1615
;	long ibis::part::doCompare<short, std::binder1st<std::equal_to<short> >, std::binder2nd<std::less_equal<short> > >(array_t<short> const&, std::binder1st<std::equal_to<short> >, std::binder2nd<std::less_equal<short> >, ibis::bitvector const&, ibis::bitvector&) const
	_ZNK4ibis4part9doCompareIsSt9binder1stISt8equal_toIsEESt9binder2ndISt10less_equalIsEEEElRK7array_tIT_ET0_T1_RKNS_9bitvectorERSH_ @ 1616
;	long ibis::part::doCompare<short, std::binder1st<std::equal_to<short> >, std::binder2nd<std::greater_equal<short> > >(array_t<short> const&, std::binder1st<std::equal_to<short> >, std::binder2nd<std::greater_equal<short> >, ibis::bitvector const&, ibis::bitvector&) const
	_ZNK4ibis4part9doCompareIsSt9binder1stISt8equal_toIsEESt9binder2ndISt13greater_equalIsEEEElRK7array_tIT_ET0_T1_RKNS_9bitvectorERSH_ @ 1617
;	long ibis::part::doCompare<short, std::binder1st<std::equal_to<short> >, std::binder2nd<std::less<short> > >(array_t<short> const&, std::binder1st<std::equal_to<short> >, std::binder2nd<std::less<short> >, ibis::bitvector const&, ibis::bitvector&) const
	_ZNK4ibis4part9doCompareIsSt9binder1stISt8equal_toIsEESt9binder2ndISt4lessIsEEEElRK7array_tIT_ET0_T1_RKNS_9bitvectorERSH_ @ 1618
;	long ibis::part::doCompare<short, std::binder1st<std::equal_to<short> >, std::binder2nd<std::greater<short> > >(array_t<short> const&, std::binder1st<std::equal_to<short> >, std::binder2nd<std::greater<short> >, ibis::bitvector const&, ibis::bitvector&) const
	_ZNK4ibis4part9doCompareIsSt9binder1stISt8equal_toIsEESt9binder2ndISt7greaterIsEEEElRK7array_tIT_ET0_T1_RKNS_9bitvectorERSH_ @ 1619
;	long ibis::part::doCompare<short, std::binder2nd<std::less_equal<short> > >(array_t<short> const&, std::binder2nd<std::less_equal<short> >, ibis::bitvector const&, ibis::bitvector&) const
	_ZNK4ibis4part9doCompareIsSt9binder2ndISt10less_equalIsEEEElRK7array_tIT_ET0_RKNS_9bitvectorERSC_ @ 1620
;	long ibis::part::doCompare<short, std::binder2nd<std::greater_equal<short> > >(array_t<short> const&, std::binder2nd<std::greater_equal<short> >, ibis::bitvector const&, ibis::bitvector&) const
	_ZNK4ibis4part9doCompareIsSt9binder2ndISt13greater_equalIsEEEElRK7array_tIT_ET0_RKNS_9bitvectorERSC_ @ 1621
;	long ibis::part::doCompare<short, std::binder2nd<std::less<short> > >(array_t<short> const&, std::binder2nd<std::less<short> >, ibis::bitvector const&, ibis::bitvector&) const
	_ZNK4ibis4part9doCompareIsSt9binder2ndISt4lessIsEEEElRK7array_tIT_ET0_RKNS_9bitvectorERSC_ @ 1622
;	long ibis::part::doCompare<short, std::binder2nd<std::greater<short> > >(array_t<short> const&, std::binder2nd<std::greater<short> >, ibis::bitvector const&, ibis::bitvector&) const
	_ZNK4ibis4part9doCompareIsSt9binder2ndISt7greaterIsEEEElRK7array_tIT_ET0_RKNS_9bitvectorERSC_ @ 1623
;	long ibis::part::doCompare<short, std::binder2nd<std::equal_to<short> > >(array_t<short> const&, std::binder2nd<std::equal_to<short> >, ibis::bitvector const&, ibis::bitvector&) const
	_ZNK4ibis4part9doCompareIsSt9binder2ndISt8equal_toIsEEEElRK7array_tIT_ET0_RKNS_9bitvectorERSC_ @ 1624
;	void ibis::part::doCompare<unsigned short>(array_t<unsigned short> const&, ibis::bitvector const&, ibis::bitvector&, ibis::qRange const&) const
	_ZNK4ibis4part9doCompareItEEvRK7array_tIT_ERKNS_9bitvectorERS7_RKNS_6qRangeE @ 1625
;	long ibis::part::doCompare<unsigned short, std::binder1st<std::less_equal<unsigned short> > >(array_t<unsigned short> const&, std::binder1st<std::less_equal<unsigned short> >, ibis::bitvector const&, ibis::bitvector&) const
	_ZNK4ibis4part9doCompareItSt9binder1stISt10less_equalItEEEElRK7array_tIT_ET0_RKNS_9bitvectorERSC_ @ 1626
;	long ibis::part::doCompare<unsigned short, std::binder1st<std::less_equal<unsigned short> >, std::binder2nd<std::less_equal<unsigned short> > >(array_t<unsigned short> const&, std::binder1st<std::less_equal<unsigned short> >, std::binder2nd<std::less_equal<unsigned short> >, ibis::bitvector const&, ibis::bitvector&) const
	_ZNK4ibis4part9doCompareItSt9binder1stISt10less_equalItEESt9binder2ndIS4_EEElRK7array_tIT_ET0_T1_RKNS_9bitvectorERSF_ @ 1627
;	long ibis::part::doCompare<unsigned short, std::binder1st<std::less_equal<unsigned short> >, std::binder2nd<std::greater_equal<unsigned short> > >(array_t<unsigned short> const&, std::binder1st<std::less_equal<unsigned short> >, std::binder2nd<std::greater_equal<unsigned short> >, ibis::bitvector const&, ibis::bitvector&) const
	_ZNK4ibis4part9doCompareItSt9binder1stISt10less_equalItEESt9binder2ndISt13greater_equalItEEEElRK7array_tIT_ET0_T1_RKNS_9bitvectorERSH_ @ 1628
;	long ibis::part::doCompare<unsigned short, std::binder1st<std::less_equal<unsigned short> >, std::binder2nd<std::less<unsigned short> > >(array_t<unsigned short> const&, std::binder1st<std::less_equal<unsigned short> >, std::binder2nd<std::less<unsigned short> >, ibis::bitvector const&, ibis::bitvector&) const
	_ZNK4ibis4part9doCompareItSt9binder1stISt10less_equalItEESt9binder2ndISt4lessItEEEElRK7array_tIT_ET0_T1_RKNS_9bitvectorERSH_ @ 1629
;	long ibis::part::doCompare<unsigned short, std::binder1st<std::less_equal<unsigned short> >, std::binder2nd<std::greater<unsigned short> > >(array_t<unsigned short> const&, std::binder1st<std::less_equal<unsigned short> >, std::binder2nd<std::greater<unsigned short> >, ibis::bitvector const&, ibis::bitvector&) const
	_ZNK4ibis4part9doCompareItSt9binder1stISt10less_equalItEESt9binder2ndISt7greaterItEEEElRK7array_tIT_ET0_T1_RKNS_9bitvectorERSH_ @ 1630
;	long ibis::part::doCompare<unsigned short, std::binder1st<std::less_equal<unsigned short> >, std::binder2nd<std::equal_to<unsigned short> > >(array_t<unsigned short> const&, std::binder1st<std::less_equal<unsigned short> >, std::binder2nd<std::equal_to<unsigned short> >, ibis::bitvector const&, ibis::bitvector&) const
	_ZNK4ibis4part9doCompareItSt9binder1stISt10less_equalItEESt9binder2ndISt8equal_toItEEEElRK7array_tIT_ET0_T1_RKNS_9bitvectorERSH_ @ 1631
;	long ibis::part::doCompare<unsigned short, std::binder1st<std::greater_equal<unsigned short> > >(array_t<unsigned short> const&, std::binder1st<std::greater_equal<unsigned short> >, ibis::bitvector const&, ibis::bitvector&) const
	_ZNK4ibis4part9doCompareItSt9binder1stISt13greater_equalItEEEElRK7array_tIT_ET0_RKNS_9bitvectorERSC_ @ 1632
;	long ibis::part::doCompare<unsigned short, std::binder1st<std::greater_equal<unsigned short> >, std::binder2nd<std::greater_equal<unsigned short> > >(array_t<unsigned short> const&, std::binder1st<std::greater_equal<unsigned short> >, std::binder2nd<std::greater_equal<unsigned short> >, ibis::bitvector const&, ibis::bitvector&) const
	_ZNK4ibis4part9doCompareItSt9binder1stISt13greater_equalItEESt9binder2ndIS4_EEElRK7array_tIT_ET0_T1_RKNS_9bitvectorERSF_ @ 1633
;	long ibis::part::doCompare<unsigned short, std::binder1st<std::greater_equal<unsigned short> >, std::binder2nd<std::less_equal<unsigned short> > >(array_t<unsigned short> const&, std::binder1st<std::greater_equal<unsigned short> >, std::binder2nd<std::less_equal<unsigned short> >, ibis::bitvector const&, ibis::bitvector&) const
	_ZNK4ibis4part9doCompareItSt9binder1stISt13greater_equalItEESt9binder2ndISt10less_equalItEEEElRK7array_tIT_ET0_T1_RKNS_9bitvectorERSH_ @ 1634
;	long ibis::part::doCompare<unsigned short, std::binder1st<std::greater_equal<unsigned short> >, std::binder2nd<std::less<unsigned short> > >(array_t<unsigned short> const&, std::binder1st<std::greater_equal<unsigned short> >, std::binder2nd<std::less<unsigned short> >, ibis::bitvector const&, ibis::bitvector&) const
	_ZNK4ibis4part9doCompareItSt9binder1stISt13greater_equalItEESt9binder2ndISt4lessItEEEElRK7array_tIT_ET0_T1_RKNS_9bitvectorERSH_ @ 1635
;	long ibis::part::doCompare<unsigned short, std::binder1st<std::greater_equal<unsigned short> >, std::binder2nd<std::greater<unsigned short> > >(array_t<unsigned short> const&, std::binder1st<std::greater_equal<unsigned short> >, std::binder2nd<std::greater<unsigned short> >, ibis::bitvector const&, ibis::bitvector&) const
	_ZNK4ibis4part9doCompareItSt9binder1stISt13greater_equalItEESt9binder2ndISt7greaterItEEEElRK7array_tIT_ET0_T1_RKNS_9bitvectorERSH_ @ 1636
;	long ibis::part::doCompare<unsigned short, std::binder1st<std::greater_equal<unsigned short> >, std::binder2nd<std::equal_to<unsigned short> > >(array_t<unsigned short> const&, std::binder1st<std::greater_equal<unsigned short> >, std::binder2nd<std::equal_to<unsigned short> >, ibis::bitvector const&, ibis::bitvector&) const
	_ZNK4ibis4part9doCompareItSt9binder1stISt13greater_equalItEESt9binder2ndISt8equal_toItEEEElRK7array_tIT_ET0_T1_RKNS_9bitvectorERSH_ @ 1637
;	long ibis::part::doCompare<unsigned short, std::binder1st<std::less<unsigned short> > >(array_t<unsigned short> const&, std::binder1st<std::less<unsigned short> >, ibis::bitvector const&, ibis::bitvector&) const
	_ZNK4ibis4part9doCompareItSt9binder1stISt4lessItEEEElRK7array_tIT_ET0_RKNS_9bitvectorERSC_ @ 1638
;	long ibis::part::doCompare<unsigned short, std::binder1st<std::less<unsigned short> >, std::binder2nd<std::less<unsigned short> > >(array_t<unsigned short> const&, std::binder1st<std::less<unsigned short> >, std::binder2nd<std::less<unsigned short> >, ibis::bitvector const&, ibis::bitvector&) const
	_ZNK4ibis4part9doCompareItSt9binder1stISt4lessItEESt9binder2ndIS4_EEElRK7array_tIT_ET0_T1_RKNS_9bitvectorERSF_ @ 1639
